; Listing generated by Microsoft (R) Optimizing Compiler Version 19.16.27030.1 

include listing.inc


PUBLIC	??_C@_08EPJLHIJG@bad?5cast?$AA@			; `string'
PUBLIC	??_C@_0BA@ELKIONDK@bad?5locale?5name?$AA@	; `string'
PUBLIC	??_C@_02LMMGGCAJ@?3?5?$AA@			; `string'
PUBLIC	??_C@_07DCLBNMLN@generic?$AA@			; `string'
PUBLIC	??_C@_08LLGCOLLL@iostream?$AA@			; `string'
PUBLIC	??_C@_0BG@PADBLCHM@iostream?5stream?5error?$AA@	; `string'
PUBLIC	??_C@_0BF@PHHKMMFD@ios_base?3?3badbit?5set?$AA@	; `string'
PUBLIC	??_C@_0BG@FMKFHCIL@ios_base?3?3failbit?5set?$AA@ ; `string'
PUBLIC	??_C@_0BF@OOHOMBOF@ios_base?3?3eofbit?5set?$AA@	; `string'
PUBLIC	??_C@_0EC@HCHNIDLM@A?5valid?5JSON?5document?5must?5be?5ei@ ; `string'
PUBLIC	??_C@_0CP@GDDNKEK@Syntax?5error?3?5value?0?5object?5or?5a@ ; `string'
PUBLIC	??_C@_03FFDNHNKN@rue?$AA@			; `string'
PUBLIC	??_C@_04KCECFHEP@alse?$AA@			; `string'
PUBLIC	??_C@_03KNPGGKC@ull?$AA@			; `string'
PUBLIC	??_C@_01EEMJAFIK@?6?$AA@			; `string'
PUBLIC	??_C@_0CF@GCCDMCPH@Missing?5?8?3?8?5after?5object?5member?5@ ; `string'
PUBLIC	??_C@_0CJ@NGKOAFKA@Missing?5?8?0?8?5or?5?8?$HN?8?5in?5object?5dec@ ; `string'
PUBLIC	??_C@_0CC@JNCGHFHN@Missing?5?8?$HN?8?5or?5object?5member?5nam@ ; `string'
PUBLIC	??_C@_0CI@DPCANLPO@Missing?5?8?0?8?5or?5?8?$FN?8?5in?5array?5decl@ ; `string'
PUBLIC	??_C@_0BD@HHNBFDKF@?8?5is?5not?5a?5number?4?$AA@ ; `string'
PUBLIC	??_C@_01GEODFPGF@?8?$AA@			; `string'
PUBLIC	??_C@_03DLDNIBIK@?$CFlf?$AA@			; `string'
PUBLIC	??_C@_0CA@DPGKPPOE@Empty?5escape?5sequence?5in?5string?$AA@ ; `string'
PUBLIC	??_C@_0BO@NDEEJNNB@Bad?5escape?5sequence?5in?5string?$AA@ ; `string'
PUBLIC	??_C@_0EE@LMPEHADE@additional?5six?5characters?5expect@ ; `string'
PUBLIC	??_C@_0FA@BGMMPLKB@expecting?5another?5?2u?5token?5to?5be@ ; `string'
PUBLIC	??_C@_0DN@BPAHJPFJ@Bad?5unicode?5escape?5sequence?5in?5s@ ; `string'
PUBLIC	??_C@_0ED@FIDDECIG@Bad?5unicode?5escape?5sequence?5in?5s@ ; `string'
PUBLIC	??_C@_0BD@LAMGIMLG@Line?5?$CFd?0?5Column?5?$CFd?$AA@ ; `string'
PUBLIC	??_C@_02KAOAMBHJ@?$CK?5?$AA@			; `string'
PUBLIC	??_C@_02KNHHEEKP@?5?5?$AA@			; `string'
PUBLIC	??_C@_0O@JBAGGIKP@?5for?5detail?4?6?$AA@	; `string'
PUBLIC	??_C@_04JBAOJHKB@See?5?$AA@			; `string'
PUBLIC	??_C@_0BC@KBDMBKEH@deque?$DMT?$DO?5too?5long?$AA@ ; `string'
PUBLIC	??_R0?AVfailure@ios_base@std@@@8		; std::ios_base::failure `RTTI Type Descriptor'
PUBLIC	??_R2system_error@std@@8			; std::system_error::`RTTI Base Class Array'
PUBLIC	??_R4facet@locale@std@@6B@			; std::locale::facet::`RTTI Complete Object Locator'
PUBLIC	??_R1A@?0A@EA@system_error@std@@8		; std::system_error::`RTTI Base Class Descriptor at (0,-1,0,64)'
PUBLIC	??_R3?$ctype@D@std@@8				; std::ctype<char>::`RTTI Class Hierarchy Descriptor'
PUBLIC	?_Static@?1???$_Immortalize@V_Iostream_error_category@std@@@std@@YAAEAV_Iostream_error_category@1@XZ@4U?$_Immortalizer@V_Iostream_error_category@std@@@1@A ; `std::_Immortalize<std::_Iostream_error_category>'::`2'::_Static
PUBLIC	??_R1A@?0A@EA@_Iostream_error_category@std@@8	; std::_Iostream_error_category::`RTTI Base Class Descriptor at (0,-1,0,64)'
PUBLIC	??_7error_category@std@@6B@			; std::error_category::`vftable'
PUBLIC	??_R4_System_error@std@@6B@			; std::_System_error::`RTTI Complete Object Locator'
PUBLIC	??_R3_Facet_base@std@@8				; std::_Facet_base::`RTTI Class Hierarchy Descriptor'
PUBLIC	??_R1A@?0A@EA@bad_cast@std@@8			; std::bad_cast::`RTTI Base Class Descriptor at (0,-1,0,64)'
PUBLIC	??_R4_Generic_error_category@std@@6B@		; std::_Generic_error_category::`RTTI Complete Object Locator'
PUBLIC	??_7_Generic_error_category@std@@6B@		; std::_Generic_error_category::`vftable'
PUBLIC	??_7_Iostream_error_category@std@@6B@		; std::_Iostream_error_category::`vftable'
PUBLIC	??_R0?AVerror_category@std@@@8			; std::error_category `RTTI Type Descriptor'
PUBLIC	??_R0?AV?$ctype@D@std@@@8			; std::ctype<char> `RTTI Type Descriptor'
PUBLIC	??_R3_Crt_new_delete@std@@8			; std::_Crt_new_delete::`RTTI Class Hierarchy Descriptor'
PUBLIC	??_R2_System_error@std@@8			; std::_System_error::`RTTI Base Class Array'
PUBLIC	??_R0?AVsystem_error@std@@@8			; std::system_error `RTTI Type Descriptor'
PUBLIC	?$TSS0@?1???$_Immortalize@V_Iostream_error_category@std@@@std@@YAAEAV_Iostream_error_category@1@XZ@4HA ; TSS0<`template-parameter-2',unsigned int,std::V_Iostream_error_category::mortalize>
PUBLIC	??_R4_Iostream_error_category@std@@6B@		; std::_Iostream_error_category::`RTTI Complete Object Locator'
PUBLIC	??_R4system_error@std@@6B@			; std::system_error::`RTTI Complete Object Locator'
PUBLIC	??_R1A@?0A@EA@_Generic_error_category@std@@8	; std::_Generic_error_category::`RTTI Base Class Descriptor at (0,-1,0,64)'
PUBLIC	??_R1A@?0A@EA@_Facet_base@std@@8		; std::_Facet_base::`RTTI Base Class Descriptor at (0,-1,0,64)'
PUBLIC	??_R0?AV_Facet_base@std@@@8			; std::_Facet_base `RTTI Type Descriptor'
PUBLIC	??_7ctype_base@std@@6B@				; std::ctype_base::`vftable'
PUBLIC	?_OptionsStorage@?1??__local_stdio_printf_options@@9@4_KA ; `__local_stdio_printf_options'::`2'::_OptionsStorage
PUBLIC	??_R3_System_error@std@@8			; std::_System_error::`RTTI Class Hierarchy Descriptor'
PUBLIC	??_R0?AV_Generic_error_category@std@@@8		; std::_Generic_error_category `RTTI Type Descriptor'
PUBLIC	??_R3_Iostream_error_category@std@@8		; std::_Iostream_error_category::`RTTI Class Hierarchy Descriptor'
PUBLIC	??_R0?AU_Crt_new_delete@std@@@8			; std::_Crt_new_delete `RTTI Type Descriptor'
PUBLIC	??_R17?0A@EA@_Crt_new_delete@std@@8		; std::_Crt_new_delete::`RTTI Base Class Descriptor at (8,-1,0,64)'
PUBLIC	_CT??_R0?AVsystem_error@std@@@8??0system_error@std@@QEAA@AEBV01@@Z40
PUBLIC	??_R2bad_cast@std@@8				; std::bad_cast::`RTTI Base Class Array'
PUBLIC	??_R4failure@ios_base@std@@6B@			; std::ios_base::failure::`RTTI Complete Object Locator'
PUBLIC	??_7bad_cast@std@@6B@				; std::bad_cast::`vftable'
PUBLIC	??_R3_Generic_error_category@std@@8		; std::_Generic_error_category::`RTTI Class Hierarchy Descriptor'
PUBLIC	??_R2_Iostream_error_category@std@@8		; std::_Iostream_error_category::`RTTI Base Class Array'
PUBLIC	??_R2error_category@std@@8			; std::error_category::`RTTI Base Class Array'
PUBLIC	??_R1A@?0A@EA@facet@locale@std@@8		; std::locale::facet::`RTTI Base Class Descriptor at (0,-1,0,64)'
PUBLIC	??_R0?AV_Iostream_error_category@std@@@8	; std::_Iostream_error_category `RTTI Type Descriptor'
PUBLIC	??_R0?AVbad_cast@std@@@8			; std::bad_cast `RTTI Type Descriptor'
PUBLIC	??_7?$ctype@D@std@@6B@				; std::ctype<char>::`vftable'
PUBLIC	_CTA2?AVbad_cast@std@@
PUBLIC	??_R2failure@ios_base@std@@8			; std::ios_base::failure::`RTTI Base Class Array'
PUBLIC	??_R4error_category@std@@6B@			; std::error_category::`RTTI Complete Object Locator'
PUBLIC	??_R0?AUctype_base@std@@@8			; std::ctype_base `RTTI Type Descriptor'
PUBLIC	??_R3failure@ios_base@std@@8			; std::ios_base::failure::`RTTI Class Hierarchy Descriptor'
PUBLIC	??_7facet@locale@std@@6B@			; std::locale::facet::`vftable'
PUBLIC	_CTA5?AVfailure@ios_base@std@@
PUBLIC	_TI2?AVbad_cast@std@@
PUBLIC	??_R2?$ctype@D@std@@8				; std::ctype<char>::`RTTI Base Class Array'
PUBLIC	??_7_System_error@std@@6B@			; std::_System_error::`vftable'
PUBLIC	??_R1A@?0A@EA@failure@ios_base@std@@8		; std::ios_base::failure::`RTTI Base Class Descriptor at (0,-1,0,64)'
PUBLIC	??_R0?AVfacet@locale@std@@@8			; std::locale::facet `RTTI Type Descriptor'
PUBLIC	??_R3facet@locale@std@@8			; std::locale::facet::`RTTI Class Hierarchy Descriptor'
PUBLIC	??_R3ctype_base@std@@8				; std::ctype_base::`RTTI Class Hierarchy Descriptor'
PUBLIC	?_Psave@?$_Facetptr@V?$ctype@D@std@@@std@@2PEBVfacet@locale@2@EB ; std::_Facetptr<std::ctype<char> >::_Psave
PUBLIC	??_R2_Generic_error_category@std@@8		; std::_Generic_error_category::`RTTI Base Class Array'
PUBLIC	??_R1A@?0A@EA@_System_error@std@@8		; std::_System_error::`RTTI Base Class Descriptor at (0,-1,0,64)'
PUBLIC	??_R3bad_cast@std@@8				; std::bad_cast::`RTTI Class Hierarchy Descriptor'
PUBLIC	??_R3error_category@std@@8			; std::error_category::`RTTI Class Hierarchy Descriptor'
PUBLIC	??_R4ctype_base@std@@6B@			; std::ctype_base::`RTTI Complete Object Locator'
PUBLIC	??_R4bad_cast@std@@6B@				; std::bad_cast::`RTTI Complete Object Locator'
PUBLIC	??_R1A@?0A@EA@_Crt_new_delete@std@@8		; std::_Crt_new_delete::`RTTI Base Class Descriptor at (0,-1,0,64)'
PUBLIC	_CT??_R0?AVbad_cast@std@@@8??0bad_cast@std@@QEAA@AEBV01@@Z24
PUBLIC	??_R4_Facet_base@std@@6B@			; std::_Facet_base::`RTTI Complete Object Locator'
PUBLIC	_CT??_R0?AV_System_error@std@@@8??0_System_error@std@@QEAA@AEBV01@@Z40
PUBLIC	??_7_Facet_base@std@@6B@			; std::_Facet_base::`vftable'
PUBLIC	?_OptionsStorage@?1??__local_stdio_scanf_options@@9@4_KA ; `__local_stdio_scanf_options'::`2'::_OptionsStorage
PUBLIC	??_R1A@?0A@EA@ctype_base@std@@8			; std::ctype_base::`RTTI Base Class Descriptor at (0,-1,0,64)'
PUBLIC	??_R0?AV_System_error@std@@@8			; std::_System_error `RTTI Type Descriptor'
PUBLIC	??_R2_Crt_new_delete@std@@8			; std::_Crt_new_delete::`RTTI Base Class Array'
PUBLIC	??_R1A@?0A@EA@?$ctype@D@std@@8			; std::ctype<char>::`RTTI Base Class Descriptor at (0,-1,0,64)'
PUBLIC	_TI5?AVfailure@ios_base@std@@
PUBLIC	_CT??_R0?AVfailure@ios_base@std@@@8??0failure@ios_base@std@@QEAA@AEBV012@@Z40
PUBLIC	??_R3system_error@std@@8			; std::system_error::`RTTI Class Hierarchy Descriptor'
PUBLIC	??_R2_Facet_base@std@@8				; std::_Facet_base::`RTTI Base Class Array'
PUBLIC	??_R2facet@locale@std@@8			; std::locale::facet::`RTTI Base Class Array'
PUBLIC	??_R4?$ctype@D@std@@6B@				; std::ctype<char>::`RTTI Complete Object Locator'
PUBLIC	??_7system_error@std@@6B@			; std::system_error::`vftable'
PUBLIC	??_R2ctype_base@std@@8				; std::ctype_base::`RTTI Base Class Array'
PUBLIC	??_7failure@ios_base@std@@6B@			; std::ios_base::failure::`vftable'
PUBLIC	??_R1A@?0A@EA@error_category@std@@8		; std::error_category::`RTTI Base Class Descriptor at (0,-1,0,64)'
EXTRN	__stdio_common_vsscanf:PROC
EXTRN	_Toupper:PROC
EXTRN	_Init_thread_abort:PROC
EXTRN	__stdio_common_vsprintf:PROC
EXTRN	_Tolower:PROC
EXTRN	_Getctype:PROC
EXTRN	?_Syserror_map@std@@YAPEBDH@Z:PROC		; std::_Syserror_map
EXTRN	?id@?$ctype@D@std@@2V0locale@2@A:QWORD		; std::ctype<char>::id
EXTRN	?_Facet_Register@std@@YAXPEAV_Facet_base@1@@Z:PROC ; std::_Facet_Register
EXTRN	?_Id_cnt@id@locale@std@@0HA:DWORD		; std::locale::id::_Id_cnt
EXTRN	?_Locinfo_ctor@_Locinfo@std@@SAXPEAV12@PEBD@Z:PROC ; std::_Locinfo::_Locinfo_ctor
EXTRN	?_Locinfo_dtor@_Locinfo@std@@SAXPEAV12@@Z:PROC	; std::_Locinfo::_Locinfo_dtor
EXTRN	?uncaught_exception@std@@YA_NXZ:PROC		; std::uncaught_exception
EXTRN	?_Getgloballocale@locale@std@@CAPEAV_Locimp@12@XZ:PROC ; std::locale::_Getgloballocale
EXTRN	??0_Lockit@std@@QEAA@H@Z:PROC			; std::_Lockit::_Lockit
EXTRN	??1_Lockit@std@@QEAA@XZ:PROC			; std::_Lockit::~_Lockit
EXTRN	__report_rangecheckfailure:PROC
EXTRN	??_V@YAXPEAX@Z:PROC				; operator delete[]
;	COMDAT ?_Static@?1???$_Immortalize@V_Iostream_error_category@std@@@std@@YAAEAV_Iostream_error_category@1@XZ@4U?$_Immortalizer@V_Iostream_error_category@std@@@1@A
_BSS	SEGMENT
?_Static@?1???$_Immortalize@V_Iostream_error_category@std@@@std@@YAAEAV_Iostream_error_category@1@XZ@4U?$_Immortalizer@V_Iostream_error_category@std@@@1@A DB 010H DUP (?) ; `std::_Immortalize<std::_Iostream_error_category>'::`2'::_Static
_BSS	ENDS
;	COMDAT ?$TSS0@?1???$_Immortalize@V_Iostream_error_category@std@@@std@@YAAEAV_Iostream_error_category@1@XZ@4HA
_BSS	SEGMENT
?$TSS0@?1???$_Immortalize@V_Iostream_error_category@std@@@std@@YAAEAV_Iostream_error_category@1@XZ@4HA DD 01H DUP (?) ; TSS0<`template-parameter-2',unsigned int,std::V_Iostream_error_category::mortalize>
_BSS	ENDS
;	COMDAT ?_OptionsStorage@?1??__local_stdio_printf_options@@9@4_KA
_BSS	SEGMENT
?_OptionsStorage@?1??__local_stdio_printf_options@@9@4_KA DQ 01H DUP (?) ; `__local_stdio_printf_options'::`2'::_OptionsStorage
_BSS	ENDS
;	COMDAT ?_Psave@?$_Facetptr@V?$ctype@D@std@@@std@@2PEBVfacet@locale@2@EB
_BSS	SEGMENT
?_Psave@?$_Facetptr@V?$ctype@D@std@@@std@@2PEBVfacet@locale@2@EB DQ 01H DUP (?) ; std::_Facetptr<std::ctype<char> >::_Psave
_BSS	ENDS
;	COMDAT ?_OptionsStorage@?1??__local_stdio_scanf_options@@9@4_KA
_BSS	SEGMENT
?_OptionsStorage@?1??__local_stdio_scanf_options@@9@4_KA DQ 01H DUP (?) ; `__local_stdio_scanf_options'::`2'::_OptionsStorage
_BSS	ENDS
;	COMDAT ??_R1A@?0A@EA@error_category@std@@8
rdata$r	SEGMENT
??_R1A@?0A@EA@error_category@std@@8 DD imagerel ??_R0?AVerror_category@std@@@8 ; std::error_category::`RTTI Base Class Descriptor at (0,-1,0,64)'
	DD	00H
	DD	00H
	DD	0ffffffffH
	DD	00H
	DD	040H
	DD	imagerel ??_R3error_category@std@@8
rdata$r	ENDS
;	COMDAT ??_7failure@ios_base@std@@6B@
CONST	SEGMENT
??_7failure@ios_base@std@@6B@ DQ FLAT:??_R4failure@ios_base@std@@6B@ ; std::ios_base::failure::`vftable'
	DQ	FLAT:??_Efailure@ios_base@std@@UEAAPEAXI@Z
	DQ	FLAT:?what@exception@std@@UEBAPEBDXZ
CONST	ENDS
;	COMDAT ??_R2ctype_base@std@@8
rdata$r	SEGMENT
??_R2ctype_base@std@@8 DD imagerel ??_R1A@?0A@EA@ctype_base@std@@8 ; std::ctype_base::`RTTI Base Class Array'
	DD	imagerel ??_R1A@?0A@EA@facet@locale@std@@8
	DD	imagerel ??_R1A@?0A@EA@_Facet_base@std@@8
	DD	imagerel ??_R17?0A@EA@_Crt_new_delete@std@@8
	ORG $+3
rdata$r	ENDS
;	COMDAT ??_7system_error@std@@6B@
CONST	SEGMENT
??_7system_error@std@@6B@ DQ FLAT:??_R4system_error@std@@6B@ ; std::system_error::`vftable'
	DQ	FLAT:??_Esystem_error@std@@UEAAPEAXI@Z
	DQ	FLAT:?what@exception@std@@UEBAPEBDXZ
CONST	ENDS
;	COMDAT ??_R4?$ctype@D@std@@6B@
rdata$r	SEGMENT
??_R4?$ctype@D@std@@6B@ DD 01H				; std::ctype<char>::`RTTI Complete Object Locator'
	DD	00H
	DD	00H
	DD	imagerel ??_R0?AV?$ctype@D@std@@@8
	DD	imagerel ??_R3?$ctype@D@std@@8
	DD	imagerel ??_R4?$ctype@D@std@@6B@
rdata$r	ENDS
;	COMDAT ??_R2facet@locale@std@@8
rdata$r	SEGMENT
??_R2facet@locale@std@@8 DD imagerel ??_R1A@?0A@EA@facet@locale@std@@8 ; std::locale::facet::`RTTI Base Class Array'
	DD	imagerel ??_R1A@?0A@EA@_Facet_base@std@@8
	DD	imagerel ??_R17?0A@EA@_Crt_new_delete@std@@8
	ORG $+3
rdata$r	ENDS
;	COMDAT ??_R2_Facet_base@std@@8
rdata$r	SEGMENT
??_R2_Facet_base@std@@8 DD imagerel ??_R1A@?0A@EA@_Facet_base@std@@8 ; std::_Facet_base::`RTTI Base Class Array'
	ORG $+3
rdata$r	ENDS
;	COMDAT ??_R3system_error@std@@8
rdata$r	SEGMENT
??_R3system_error@std@@8 DD 00H				; std::system_error::`RTTI Class Hierarchy Descriptor'
	DD	00H
	DD	04H
	DD	imagerel ??_R2system_error@std@@8
rdata$r	ENDS
;	COMDAT _CT??_R0?AVfailure@ios_base@std@@@8??0failure@ios_base@std@@QEAA@AEBV012@@Z40
xdata$x	SEGMENT
_CT??_R0?AVfailure@ios_base@std@@@8??0failure@ios_base@std@@QEAA@AEBV012@@Z40 DD 00H
	DD	imagerel ??_R0?AVfailure@ios_base@std@@@8
	DD	00H
	DD	0ffffffffH
	ORG $+4
	DD	028H
	DD	imagerel ??0failure@ios_base@std@@QEAA@AEBV012@@Z
xdata$x	ENDS
;	COMDAT _TI5?AVfailure@ios_base@std@@
xdata$x	SEGMENT
_TI5?AVfailure@ios_base@std@@ DD 00H
	DD	imagerel ??1failure@ios_base@std@@UEAA@XZ
	DD	00H
	DD	imagerel _CTA5?AVfailure@ios_base@std@@
xdata$x	ENDS
;	COMDAT ??_R1A@?0A@EA@?$ctype@D@std@@8
rdata$r	SEGMENT
??_R1A@?0A@EA@?$ctype@D@std@@8 DD imagerel ??_R0?AV?$ctype@D@std@@@8 ; std::ctype<char>::`RTTI Base Class Descriptor at (0,-1,0,64)'
	DD	04H
	DD	00H
	DD	0ffffffffH
	DD	00H
	DD	040H
	DD	imagerel ??_R3?$ctype@D@std@@8
rdata$r	ENDS
;	COMDAT ??_R2_Crt_new_delete@std@@8
rdata$r	SEGMENT
??_R2_Crt_new_delete@std@@8 DD imagerel ??_R1A@?0A@EA@_Crt_new_delete@std@@8 ; std::_Crt_new_delete::`RTTI Base Class Array'
	ORG $+3
rdata$r	ENDS
;	COMDAT ??_R0?AV_System_error@std@@@8
data$r	SEGMENT
??_R0?AV_System_error@std@@@8 DQ FLAT:??_7type_info@@6B@ ; std::_System_error `RTTI Type Descriptor'
	DQ	0000000000000000H
	DB	'.?AV_System_error@std@@', 00H
data$r	ENDS
;	COMDAT ??_R1A@?0A@EA@ctype_base@std@@8
rdata$r	SEGMENT
??_R1A@?0A@EA@ctype_base@std@@8 DD imagerel ??_R0?AUctype_base@std@@@8 ; std::ctype_base::`RTTI Base Class Descriptor at (0,-1,0,64)'
	DD	03H
	DD	00H
	DD	0ffffffffH
	DD	00H
	DD	040H
	DD	imagerel ??_R3ctype_base@std@@8
rdata$r	ENDS
;	COMDAT ??_7_Facet_base@std@@6B@
CONST	SEGMENT
??_7_Facet_base@std@@6B@ DQ FLAT:??_R4_Facet_base@std@@6B@ ; std::_Facet_base::`vftable'
	DQ	FLAT:??_E_Facet_base@std@@UEAAPEAXI@Z
	DQ	FLAT:_purecall
	DQ	FLAT:_purecall
CONST	ENDS
;	COMDAT _CT??_R0?AV_System_error@std@@@8??0_System_error@std@@QEAA@AEBV01@@Z40
xdata$x	SEGMENT
_CT??_R0?AV_System_error@std@@@8??0_System_error@std@@QEAA@AEBV01@@Z40 DD 00H
	DD	imagerel ??_R0?AV_System_error@std@@@8
	DD	00H
	DD	0ffffffffH
	ORG $+4
	DD	028H
	DD	imagerel ??0_System_error@std@@QEAA@AEBV01@@Z
xdata$x	ENDS
;	COMDAT ??_R4_Facet_base@std@@6B@
rdata$r	SEGMENT
??_R4_Facet_base@std@@6B@ DD 01H			; std::_Facet_base::`RTTI Complete Object Locator'
	DD	00H
	DD	00H
	DD	imagerel ??_R0?AV_Facet_base@std@@@8
	DD	imagerel ??_R3_Facet_base@std@@8
	DD	imagerel ??_R4_Facet_base@std@@6B@
rdata$r	ENDS
;	COMDAT _CT??_R0?AVbad_cast@std@@@8??0bad_cast@std@@QEAA@AEBV01@@Z24
xdata$x	SEGMENT
_CT??_R0?AVbad_cast@std@@@8??0bad_cast@std@@QEAA@AEBV01@@Z24 DD 00H
	DD	imagerel ??_R0?AVbad_cast@std@@@8
	DD	00H
	DD	0ffffffffH
	ORG $+4
	DD	018H
	DD	imagerel ??0bad_cast@std@@QEAA@AEBV01@@Z
xdata$x	ENDS
;	COMDAT ??_R1A@?0A@EA@_Crt_new_delete@std@@8
rdata$r	SEGMENT
??_R1A@?0A@EA@_Crt_new_delete@std@@8 DD imagerel ??_R0?AU_Crt_new_delete@std@@@8 ; std::_Crt_new_delete::`RTTI Base Class Descriptor at (0,-1,0,64)'
	DD	00H
	DD	00H
	DD	0ffffffffH
	DD	00H
	DD	040H
	DD	imagerel ??_R3_Crt_new_delete@std@@8
rdata$r	ENDS
;	COMDAT ??_R4bad_cast@std@@6B@
rdata$r	SEGMENT
??_R4bad_cast@std@@6B@ DD 01H				; std::bad_cast::`RTTI Complete Object Locator'
	DD	00H
	DD	00H
	DD	imagerel ??_R0?AVbad_cast@std@@@8
	DD	imagerel ??_R3bad_cast@std@@8
	DD	imagerel ??_R4bad_cast@std@@6B@
rdata$r	ENDS
;	COMDAT ??_R4ctype_base@std@@6B@
rdata$r	SEGMENT
??_R4ctype_base@std@@6B@ DD 01H				; std::ctype_base::`RTTI Complete Object Locator'
	DD	00H
	DD	00H
	DD	imagerel ??_R0?AUctype_base@std@@@8
	DD	imagerel ??_R3ctype_base@std@@8
	DD	imagerel ??_R4ctype_base@std@@6B@
rdata$r	ENDS
;	COMDAT ??_R3error_category@std@@8
rdata$r	SEGMENT
??_R3error_category@std@@8 DD 00H			; std::error_category::`RTTI Class Hierarchy Descriptor'
	DD	00H
	DD	01H
	DD	imagerel ??_R2error_category@std@@8
rdata$r	ENDS
;	COMDAT ??_R3bad_cast@std@@8
rdata$r	SEGMENT
??_R3bad_cast@std@@8 DD 00H				; std::bad_cast::`RTTI Class Hierarchy Descriptor'
	DD	00H
	DD	02H
	DD	imagerel ??_R2bad_cast@std@@8
rdata$r	ENDS
;	COMDAT ??_R1A@?0A@EA@_System_error@std@@8
rdata$r	SEGMENT
??_R1A@?0A@EA@_System_error@std@@8 DD imagerel ??_R0?AV_System_error@std@@@8 ; std::_System_error::`RTTI Base Class Descriptor at (0,-1,0,64)'
	DD	02H
	DD	00H
	DD	0ffffffffH
	DD	00H
	DD	040H
	DD	imagerel ??_R3_System_error@std@@8
rdata$r	ENDS
;	COMDAT ??_R2_Generic_error_category@std@@8
rdata$r	SEGMENT
??_R2_Generic_error_category@std@@8 DD imagerel ??_R1A@?0A@EA@_Generic_error_category@std@@8 ; std::_Generic_error_category::`RTTI Base Class Array'
	DD	imagerel ??_R1A@?0A@EA@error_category@std@@8
	ORG $+3
rdata$r	ENDS
;	COMDAT ??_R3ctype_base@std@@8
rdata$r	SEGMENT
??_R3ctype_base@std@@8 DD 00H				; std::ctype_base::`RTTI Class Hierarchy Descriptor'
	DD	01H
	DD	04H
	DD	imagerel ??_R2ctype_base@std@@8
rdata$r	ENDS
;	COMDAT ??_R3facet@locale@std@@8
rdata$r	SEGMENT
??_R3facet@locale@std@@8 DD 00H				; std::locale::facet::`RTTI Class Hierarchy Descriptor'
	DD	01H
	DD	03H
	DD	imagerel ??_R2facet@locale@std@@8
rdata$r	ENDS
;	COMDAT ??_R0?AVfacet@locale@std@@@8
data$r	SEGMENT
??_R0?AVfacet@locale@std@@@8 DQ FLAT:??_7type_info@@6B@	; std::locale::facet `RTTI Type Descriptor'
	DQ	0000000000000000H
	DB	'.?AVfacet@locale@std@@', 00H
data$r	ENDS
;	COMDAT ??_R1A@?0A@EA@failure@ios_base@std@@8
rdata$r	SEGMENT
??_R1A@?0A@EA@failure@ios_base@std@@8 DD imagerel ??_R0?AVfailure@ios_base@std@@@8 ; std::ios_base::failure::`RTTI Base Class Descriptor at (0,-1,0,64)'
	DD	04H
	DD	00H
	DD	0ffffffffH
	DD	00H
	DD	040H
	DD	imagerel ??_R3failure@ios_base@std@@8
rdata$r	ENDS
;	COMDAT ??_7_System_error@std@@6B@
CONST	SEGMENT
??_7_System_error@std@@6B@ DQ FLAT:??_R4_System_error@std@@6B@ ; std::_System_error::`vftable'
	DQ	FLAT:??_E_System_error@std@@UEAAPEAXI@Z
	DQ	FLAT:?what@exception@std@@UEBAPEBDXZ
CONST	ENDS
;	COMDAT ??_R2?$ctype@D@std@@8
rdata$r	SEGMENT
??_R2?$ctype@D@std@@8 DD imagerel ??_R1A@?0A@EA@?$ctype@D@std@@8 ; std::ctype<char>::`RTTI Base Class Array'
	DD	imagerel ??_R1A@?0A@EA@ctype_base@std@@8
	DD	imagerel ??_R1A@?0A@EA@facet@locale@std@@8
	DD	imagerel ??_R1A@?0A@EA@_Facet_base@std@@8
	DD	imagerel ??_R17?0A@EA@_Crt_new_delete@std@@8
	ORG $+3
rdata$r	ENDS
;	COMDAT _TI2?AVbad_cast@std@@
xdata$x	SEGMENT
_TI2?AVbad_cast@std@@ DD 00H
	DD	imagerel ??1bad_cast@std@@UEAA@XZ
	DD	00H
	DD	imagerel _CTA2?AVbad_cast@std@@
xdata$x	ENDS
;	COMDAT _CTA5?AVfailure@ios_base@std@@
xdata$x	SEGMENT
_CTA5?AVfailure@ios_base@std@@ DD 05H
	DD	imagerel _CT??_R0?AVfailure@ios_base@std@@@8??0failure@ios_base@std@@QEAA@AEBV012@@Z40
	DD	imagerel _CT??_R0?AVsystem_error@std@@@8??0system_error@std@@QEAA@AEBV01@@Z40
	DD	imagerel _CT??_R0?AV_System_error@std@@@8??0_System_error@std@@QEAA@AEBV01@@Z40
	DD	imagerel _CT??_R0?AVruntime_error@std@@@8??0runtime_error@std@@QEAA@AEBV01@@Z24
	DD	imagerel _CT??_R0?AVexception@std@@@8??0exception@std@@QEAA@AEBV01@@Z24
xdata$x	ENDS
;	COMDAT ??_7facet@locale@std@@6B@
CONST	SEGMENT
??_7facet@locale@std@@6B@ DQ FLAT:??_R4facet@locale@std@@6B@ ; std::locale::facet::`vftable'
	DQ	FLAT:??_Efacet@locale@std@@MEAAPEAXI@Z
	DQ	FLAT:?_Incref@facet@locale@std@@UEAAXXZ
	DQ	FLAT:?_Decref@facet@locale@std@@UEAAPEAV_Facet_base@3@XZ
CONST	ENDS
;	COMDAT ??_R3failure@ios_base@std@@8
rdata$r	SEGMENT
??_R3failure@ios_base@std@@8 DD 00H			; std::ios_base::failure::`RTTI Class Hierarchy Descriptor'
	DD	00H
	DD	05H
	DD	imagerel ??_R2failure@ios_base@std@@8
rdata$r	ENDS
;	COMDAT ??_R0?AUctype_base@std@@@8
data$r	SEGMENT
??_R0?AUctype_base@std@@@8 DQ FLAT:??_7type_info@@6B@	; std::ctype_base `RTTI Type Descriptor'
	DQ	0000000000000000H
	DB	'.?AUctype_base@std@@', 00H
data$r	ENDS
;	COMDAT ??_R4error_category@std@@6B@
rdata$r	SEGMENT
??_R4error_category@std@@6B@ DD 01H			; std::error_category::`RTTI Complete Object Locator'
	DD	00H
	DD	00H
	DD	imagerel ??_R0?AVerror_category@std@@@8
	DD	imagerel ??_R3error_category@std@@8
	DD	imagerel ??_R4error_category@std@@6B@
rdata$r	ENDS
;	COMDAT ??_R2failure@ios_base@std@@8
rdata$r	SEGMENT
??_R2failure@ios_base@std@@8 DD imagerel ??_R1A@?0A@EA@failure@ios_base@std@@8 ; std::ios_base::failure::`RTTI Base Class Array'
	DD	imagerel ??_R1A@?0A@EA@system_error@std@@8
	DD	imagerel ??_R1A@?0A@EA@_System_error@std@@8
	DD	imagerel ??_R1A@?0A@EA@runtime_error@std@@8
	DD	imagerel ??_R1A@?0A@EA@exception@std@@8
	ORG $+3
rdata$r	ENDS
;	COMDAT _CTA2?AVbad_cast@std@@
xdata$x	SEGMENT
_CTA2?AVbad_cast@std@@ DD 02H
	DD	imagerel _CT??_R0?AVbad_cast@std@@@8??0bad_cast@std@@QEAA@AEBV01@@Z24
	DD	imagerel _CT??_R0?AVexception@std@@@8??0exception@std@@QEAA@AEBV01@@Z24
xdata$x	ENDS
;	COMDAT ??_7?$ctype@D@std@@6B@
CONST	SEGMENT
??_7?$ctype@D@std@@6B@ DQ FLAT:??_R4?$ctype@D@std@@6B@	; std::ctype<char>::`vftable'
	DQ	FLAT:??_E?$ctype@D@std@@MEAAPEAXI@Z
	DQ	FLAT:?_Incref@facet@locale@std@@UEAAXXZ
	DQ	FLAT:?_Decref@facet@locale@std@@UEAAPEAV_Facet_base@3@XZ
	DQ	FLAT:?do_tolower@?$ctype@D@std@@MEBAPEBDPEADPEBD@Z
	DQ	FLAT:?do_tolower@?$ctype@D@std@@MEBADD@Z
	DQ	FLAT:?do_toupper@?$ctype@D@std@@MEBAPEBDPEADPEBD@Z
	DQ	FLAT:?do_toupper@?$ctype@D@std@@MEBADD@Z
	DQ	FLAT:?do_widen@?$ctype@D@std@@MEBAPEBDPEBD0PEAD@Z
	DQ	FLAT:?do_widen@?$ctype@D@std@@MEBADD@Z
	DQ	FLAT:?do_narrow@?$ctype@D@std@@MEBAPEBDPEBD0DPEAD@Z
	DQ	FLAT:?do_narrow@?$ctype@D@std@@MEBADDD@Z
CONST	ENDS
;	COMDAT ??_R0?AVbad_cast@std@@@8
data$r	SEGMENT
??_R0?AVbad_cast@std@@@8 DQ FLAT:??_7type_info@@6B@	; std::bad_cast `RTTI Type Descriptor'
	DQ	0000000000000000H
	DB	'.?AVbad_cast@std@@', 00H
data$r	ENDS
;	COMDAT ??_R0?AV_Iostream_error_category@std@@@8
data$r	SEGMENT
??_R0?AV_Iostream_error_category@std@@@8 DQ FLAT:??_7type_info@@6B@ ; std::_Iostream_error_category `RTTI Type Descriptor'
	DQ	0000000000000000H
	DB	'.?AV_Iostream_error_category@std@@', 00H
data$r	ENDS
;	COMDAT ??_R1A@?0A@EA@facet@locale@std@@8
rdata$r	SEGMENT
??_R1A@?0A@EA@facet@locale@std@@8 DD imagerel ??_R0?AVfacet@locale@std@@@8 ; std::locale::facet::`RTTI Base Class Descriptor at (0,-1,0,64)'
	DD	02H
	DD	00H
	DD	0ffffffffH
	DD	00H
	DD	040H
	DD	imagerel ??_R3facet@locale@std@@8
rdata$r	ENDS
;	COMDAT ??_R2error_category@std@@8
rdata$r	SEGMENT
??_R2error_category@std@@8 DD imagerel ??_R1A@?0A@EA@error_category@std@@8 ; std::error_category::`RTTI Base Class Array'
	ORG $+3
rdata$r	ENDS
;	COMDAT ??_R2_Iostream_error_category@std@@8
rdata$r	SEGMENT
??_R2_Iostream_error_category@std@@8 DD imagerel ??_R1A@?0A@EA@_Iostream_error_category@std@@8 ; std::_Iostream_error_category::`RTTI Base Class Array'
	DD	imagerel ??_R1A@?0A@EA@_Generic_error_category@std@@8
	DD	imagerel ??_R1A@?0A@EA@error_category@std@@8
	ORG $+3
rdata$r	ENDS
;	COMDAT ??_R3_Generic_error_category@std@@8
rdata$r	SEGMENT
??_R3_Generic_error_category@std@@8 DD 00H		; std::_Generic_error_category::`RTTI Class Hierarchy Descriptor'
	DD	00H
	DD	02H
	DD	imagerel ??_R2_Generic_error_category@std@@8
rdata$r	ENDS
;	COMDAT ??_7bad_cast@std@@6B@
CONST	SEGMENT
??_7bad_cast@std@@6B@ DQ FLAT:??_R4bad_cast@std@@6B@	; std::bad_cast::`vftable'
	DQ	FLAT:??_Ebad_cast@std@@UEAAPEAXI@Z
	DQ	FLAT:?what@exception@std@@UEBAPEBDXZ
CONST	ENDS
;	COMDAT ??_R4failure@ios_base@std@@6B@
rdata$r	SEGMENT
??_R4failure@ios_base@std@@6B@ DD 01H			; std::ios_base::failure::`RTTI Complete Object Locator'
	DD	00H
	DD	00H
	DD	imagerel ??_R0?AVfailure@ios_base@std@@@8
	DD	imagerel ??_R3failure@ios_base@std@@8
	DD	imagerel ??_R4failure@ios_base@std@@6B@
rdata$r	ENDS
;	COMDAT ??_R2bad_cast@std@@8
rdata$r	SEGMENT
??_R2bad_cast@std@@8 DD imagerel ??_R1A@?0A@EA@bad_cast@std@@8 ; std::bad_cast::`RTTI Base Class Array'
	DD	imagerel ??_R1A@?0A@EA@exception@std@@8
	ORG $+3
rdata$r	ENDS
;	COMDAT _CT??_R0?AVsystem_error@std@@@8??0system_error@std@@QEAA@AEBV01@@Z40
xdata$x	SEGMENT
_CT??_R0?AVsystem_error@std@@@8??0system_error@std@@QEAA@AEBV01@@Z40 DD 00H
	DD	imagerel ??_R0?AVsystem_error@std@@@8
	DD	00H
	DD	0ffffffffH
	ORG $+4
	DD	028H
	DD	imagerel ??0system_error@std@@QEAA@AEBV01@@Z
xdata$x	ENDS
;	COMDAT ??_R17?0A@EA@_Crt_new_delete@std@@8
rdata$r	SEGMENT
??_R17?0A@EA@_Crt_new_delete@std@@8 DD imagerel ??_R0?AU_Crt_new_delete@std@@@8 ; std::_Crt_new_delete::`RTTI Base Class Descriptor at (8,-1,0,64)'
	DD	00H
	DD	08H
	DD	0ffffffffH
	DD	00H
	DD	040H
	DD	imagerel ??_R3_Crt_new_delete@std@@8
rdata$r	ENDS
;	COMDAT ??_R0?AU_Crt_new_delete@std@@@8
data$r	SEGMENT
??_R0?AU_Crt_new_delete@std@@@8 DQ FLAT:??_7type_info@@6B@ ; std::_Crt_new_delete `RTTI Type Descriptor'
	DQ	0000000000000000H
	DB	'.?AU_Crt_new_delete@std@@', 00H
data$r	ENDS
;	COMDAT ??_R3_Iostream_error_category@std@@8
rdata$r	SEGMENT
??_R3_Iostream_error_category@std@@8 DD 00H		; std::_Iostream_error_category::`RTTI Class Hierarchy Descriptor'
	DD	00H
	DD	03H
	DD	imagerel ??_R2_Iostream_error_category@std@@8
rdata$r	ENDS
;	COMDAT ??_R0?AV_Generic_error_category@std@@@8
data$r	SEGMENT
??_R0?AV_Generic_error_category@std@@@8 DQ FLAT:??_7type_info@@6B@ ; std::_Generic_error_category `RTTI Type Descriptor'
	DQ	0000000000000000H
	DB	'.?AV_Generic_error_category@std@@', 00H
data$r	ENDS
;	COMDAT ??_R3_System_error@std@@8
rdata$r	SEGMENT
??_R3_System_error@std@@8 DD 00H			; std::_System_error::`RTTI Class Hierarchy Descriptor'
	DD	00H
	DD	03H
	DD	imagerel ??_R2_System_error@std@@8
rdata$r	ENDS
;	COMDAT ??_7ctype_base@std@@6B@
CONST	SEGMENT
??_7ctype_base@std@@6B@ DQ FLAT:??_R4ctype_base@std@@6B@ ; std::ctype_base::`vftable'
	DQ	FLAT:??_Ectype_base@std@@UEAAPEAXI@Z
	DQ	FLAT:?_Incref@facet@locale@std@@UEAAXXZ
	DQ	FLAT:?_Decref@facet@locale@std@@UEAAPEAV_Facet_base@3@XZ
CONST	ENDS
;	COMDAT ??_R0?AV_Facet_base@std@@@8
data$r	SEGMENT
??_R0?AV_Facet_base@std@@@8 DQ FLAT:??_7type_info@@6B@	; std::_Facet_base `RTTI Type Descriptor'
	DQ	0000000000000000H
	DB	'.?AV_Facet_base@std@@', 00H
data$r	ENDS
;	COMDAT ??_R1A@?0A@EA@_Facet_base@std@@8
rdata$r	SEGMENT
??_R1A@?0A@EA@_Facet_base@std@@8 DD imagerel ??_R0?AV_Facet_base@std@@@8 ; std::_Facet_base::`RTTI Base Class Descriptor at (0,-1,0,64)'
	DD	00H
	DD	00H
	DD	0ffffffffH
	DD	00H
	DD	040H
	DD	imagerel ??_R3_Facet_base@std@@8
rdata$r	ENDS
;	COMDAT ??_R1A@?0A@EA@_Generic_error_category@std@@8
rdata$r	SEGMENT
??_R1A@?0A@EA@_Generic_error_category@std@@8 DD imagerel ??_R0?AV_Generic_error_category@std@@@8 ; std::_Generic_error_category::`RTTI Base Class Descriptor at (0,-1,0,64)'
	DD	01H
	DD	00H
	DD	0ffffffffH
	DD	00H
	DD	040H
	DD	imagerel ??_R3_Generic_error_category@std@@8
rdata$r	ENDS
;	COMDAT ??_R4system_error@std@@6B@
rdata$r	SEGMENT
??_R4system_error@std@@6B@ DD 01H			; std::system_error::`RTTI Complete Object Locator'
	DD	00H
	DD	00H
	DD	imagerel ??_R0?AVsystem_error@std@@@8
	DD	imagerel ??_R3system_error@std@@8
	DD	imagerel ??_R4system_error@std@@6B@
rdata$r	ENDS
;	COMDAT ??_R4_Iostream_error_category@std@@6B@
rdata$r	SEGMENT
??_R4_Iostream_error_category@std@@6B@ DD 01H		; std::_Iostream_error_category::`RTTI Complete Object Locator'
	DD	00H
	DD	00H
	DD	imagerel ??_R0?AV_Iostream_error_category@std@@@8
	DD	imagerel ??_R3_Iostream_error_category@std@@8
	DD	imagerel ??_R4_Iostream_error_category@std@@6B@
rdata$r	ENDS
;	COMDAT ??_R0?AVsystem_error@std@@@8
data$r	SEGMENT
??_R0?AVsystem_error@std@@@8 DQ FLAT:??_7type_info@@6B@	; std::system_error `RTTI Type Descriptor'
	DQ	0000000000000000H
	DB	'.?AVsystem_error@std@@', 00H
data$r	ENDS
;	COMDAT ??_R2_System_error@std@@8
rdata$r	SEGMENT
??_R2_System_error@std@@8 DD imagerel ??_R1A@?0A@EA@_System_error@std@@8 ; std::_System_error::`RTTI Base Class Array'
	DD	imagerel ??_R1A@?0A@EA@runtime_error@std@@8
	DD	imagerel ??_R1A@?0A@EA@exception@std@@8
	ORG $+3
rdata$r	ENDS
;	COMDAT ??_R3_Crt_new_delete@std@@8
rdata$r	SEGMENT
??_R3_Crt_new_delete@std@@8 DD 00H			; std::_Crt_new_delete::`RTTI Class Hierarchy Descriptor'
	DD	00H
	DD	01H
	DD	imagerel ??_R2_Crt_new_delete@std@@8
rdata$r	ENDS
;	COMDAT ??_R0?AV?$ctype@D@std@@@8
data$r	SEGMENT
??_R0?AV?$ctype@D@std@@@8 DQ FLAT:??_7type_info@@6B@	; std::ctype<char> `RTTI Type Descriptor'
	DQ	0000000000000000H
	DB	'.?AV?$ctype@D@std@@', 00H
data$r	ENDS
;	COMDAT ??_R0?AVerror_category@std@@@8
data$r	SEGMENT
??_R0?AVerror_category@std@@@8 DQ FLAT:??_7type_info@@6B@ ; std::error_category `RTTI Type Descriptor'
	DQ	0000000000000000H
	DB	'.?AVerror_category@std@@', 00H
data$r	ENDS
;	COMDAT ??_7_Iostream_error_category@std@@6B@
CONST	SEGMENT
??_7_Iostream_error_category@std@@6B@ DQ FLAT:??_R4_Iostream_error_category@std@@6B@ ; std::_Iostream_error_category::`vftable'
	DQ	FLAT:??_E_Iostream_error_category@std@@UEAAPEAXI@Z
	DQ	FLAT:?name@_Iostream_error_category@std@@UEBAPEBDXZ
	DQ	FLAT:?message@_Iostream_error_category@std@@UEBA?AV?$basic_string@DU?$char_traits@D@std@@V?$allocator@D@2@@2@H@Z
	DQ	FLAT:?default_error_condition@error_category@std@@UEBA?AVerror_condition@2@H@Z
	DQ	FLAT:?equivalent@error_category@std@@UEBA_NAEBVerror_code@2@H@Z
	DQ	FLAT:?equivalent@error_category@std@@UEBA_NHAEBVerror_condition@2@@Z
CONST	ENDS
;	COMDAT ??_7_Generic_error_category@std@@6B@
CONST	SEGMENT
??_7_Generic_error_category@std@@6B@ DQ FLAT:??_R4_Generic_error_category@std@@6B@ ; std::_Generic_error_category::`vftable'
	DQ	FLAT:??_E_Generic_error_category@std@@UEAAPEAXI@Z
	DQ	FLAT:?name@_Generic_error_category@std@@UEBAPEBDXZ
	DQ	FLAT:?message@_Generic_error_category@std@@UEBA?AV?$basic_string@DU?$char_traits@D@std@@V?$allocator@D@2@@2@H@Z
	DQ	FLAT:?default_error_condition@error_category@std@@UEBA?AVerror_condition@2@H@Z
	DQ	FLAT:?equivalent@error_category@std@@UEBA_NAEBVerror_code@2@H@Z
	DQ	FLAT:?equivalent@error_category@std@@UEBA_NHAEBVerror_condition@2@@Z
CONST	ENDS
;	COMDAT ??_R4_Generic_error_category@std@@6B@
rdata$r	SEGMENT
??_R4_Generic_error_category@std@@6B@ DD 01H		; std::_Generic_error_category::`RTTI Complete Object Locator'
	DD	00H
	DD	00H
	DD	imagerel ??_R0?AV_Generic_error_category@std@@@8
	DD	imagerel ??_R3_Generic_error_category@std@@8
	DD	imagerel ??_R4_Generic_error_category@std@@6B@
rdata$r	ENDS
;	COMDAT ??_R1A@?0A@EA@bad_cast@std@@8
rdata$r	SEGMENT
??_R1A@?0A@EA@bad_cast@std@@8 DD imagerel ??_R0?AVbad_cast@std@@@8 ; std::bad_cast::`RTTI Base Class Descriptor at (0,-1,0,64)'
	DD	01H
	DD	00H
	DD	0ffffffffH
	DD	00H
	DD	040H
	DD	imagerel ??_R3bad_cast@std@@8
rdata$r	ENDS
;	COMDAT ??_R3_Facet_base@std@@8
rdata$r	SEGMENT
??_R3_Facet_base@std@@8 DD 00H				; std::_Facet_base::`RTTI Class Hierarchy Descriptor'
	DD	00H
	DD	01H
	DD	imagerel ??_R2_Facet_base@std@@8
rdata$r	ENDS
;	COMDAT ??_R4_System_error@std@@6B@
rdata$r	SEGMENT
??_R4_System_error@std@@6B@ DD 01H			; std::_System_error::`RTTI Complete Object Locator'
	DD	00H
	DD	00H
	DD	imagerel ??_R0?AV_System_error@std@@@8
	DD	imagerel ??_R3_System_error@std@@8
	DD	imagerel ??_R4_System_error@std@@6B@
rdata$r	ENDS
;	COMDAT ??_7error_category@std@@6B@
CONST	SEGMENT
??_7error_category@std@@6B@ DQ FLAT:??_R4error_category@std@@6B@ ; std::error_category::`vftable'
	DQ	FLAT:??_Eerror_category@std@@UEAAPEAXI@Z
	DQ	FLAT:_purecall
	DQ	FLAT:_purecall
	DQ	FLAT:?default_error_condition@error_category@std@@UEBA?AVerror_condition@2@H@Z
	DQ	FLAT:?equivalent@error_category@std@@UEBA_NAEBVerror_code@2@H@Z
	DQ	FLAT:?equivalent@error_category@std@@UEBA_NHAEBVerror_condition@2@@Z
CONST	ENDS
;	COMDAT ??_R1A@?0A@EA@_Iostream_error_category@std@@8
rdata$r	SEGMENT
??_R1A@?0A@EA@_Iostream_error_category@std@@8 DD imagerel ??_R0?AV_Iostream_error_category@std@@@8 ; std::_Iostream_error_category::`RTTI Base Class Descriptor at (0,-1,0,64)'
	DD	02H
	DD	00H
	DD	0ffffffffH
	DD	00H
	DD	040H
	DD	imagerel ??_R3_Iostream_error_category@std@@8
rdata$r	ENDS
;	COMDAT ??_R3?$ctype@D@std@@8
rdata$r	SEGMENT
??_R3?$ctype@D@std@@8 DD 00H				; std::ctype<char>::`RTTI Class Hierarchy Descriptor'
	DD	01H
	DD	05H
	DD	imagerel ??_R2?$ctype@D@std@@8
rdata$r	ENDS
;	COMDAT ??_R1A@?0A@EA@system_error@std@@8
rdata$r	SEGMENT
??_R1A@?0A@EA@system_error@std@@8 DD imagerel ??_R0?AVsystem_error@std@@@8 ; std::system_error::`RTTI Base Class Descriptor at (0,-1,0,64)'
	DD	03H
	DD	00H
	DD	0ffffffffH
	DD	00H
	DD	040H
	DD	imagerel ??_R3system_error@std@@8
rdata$r	ENDS
;	COMDAT ??_R4facet@locale@std@@6B@
rdata$r	SEGMENT
??_R4facet@locale@std@@6B@ DD 01H			; std::locale::facet::`RTTI Complete Object Locator'
	DD	00H
	DD	00H
	DD	imagerel ??_R0?AVfacet@locale@std@@@8
	DD	imagerel ??_R3facet@locale@std@@8
	DD	imagerel ??_R4facet@locale@std@@6B@
rdata$r	ENDS
;	COMDAT ??_R2system_error@std@@8
rdata$r	SEGMENT
??_R2system_error@std@@8 DD imagerel ??_R1A@?0A@EA@system_error@std@@8 ; std::system_error::`RTTI Base Class Array'
	DD	imagerel ??_R1A@?0A@EA@_System_error@std@@8
	DD	imagerel ??_R1A@?0A@EA@runtime_error@std@@8
	DD	imagerel ??_R1A@?0A@EA@exception@std@@8
	ORG $+3
rdata$r	ENDS
;	COMDAT ??_R0?AVfailure@ios_base@std@@@8
data$r	SEGMENT
??_R0?AVfailure@ios_base@std@@@8 DQ FLAT:??_7type_info@@6B@ ; std::ios_base::failure `RTTI Type Descriptor'
	DQ	0000000000000000H
	DB	'.?AVfailure@ios_base@std@@', 00H
data$r	ENDS
;	COMDAT ??_C@_0BC@KBDMBKEH@deque?$DMT?$DO?5too?5long?$AA@
CONST	SEGMENT
??_C@_0BC@KBDMBKEH@deque?$DMT?$DO?5too?5long?$AA@ DB 'deque<T> too long', 00H ; `string'
CONST	ENDS
;	COMDAT ??_C@_04JBAOJHKB@See?5?$AA@
CONST	SEGMENT
??_C@_04JBAOJHKB@See?5?$AA@ DB 'See ', 00H		; `string'
CONST	ENDS
;	COMDAT ??_C@_0O@JBAGGIKP@?5for?5detail?4?6?$AA@
CONST	SEGMENT
??_C@_0O@JBAGGIKP@?5for?5detail?4?6?$AA@ DB ' for detail.', 0aH, 00H ; `string'
CONST	ENDS
;	COMDAT ??_C@_02KNHHEEKP@?5?5?$AA@
CONST	SEGMENT
??_C@_02KNHHEEKP@?5?5?$AA@ DB '  ', 00H			; `string'
CONST	ENDS
;	COMDAT ??_C@_02KAOAMBHJ@?$CK?5?$AA@
CONST	SEGMENT
??_C@_02KAOAMBHJ@?$CK?5?$AA@ DB '* ', 00H		; `string'
CONST	ENDS
;	COMDAT ??_C@_0BD@LAMGIMLG@Line?5?$CFd?0?5Column?5?$CFd?$AA@
CONST	SEGMENT
??_C@_0BD@LAMGIMLG@Line?5?$CFd?0?5Column?5?$CFd?$AA@ DB 'Line %d, Column '
	DB	'%d', 00H					; `string'
CONST	ENDS
;	COMDAT ??_C@_0ED@FIDDECIG@Bad?5unicode?5escape?5sequence?5in?5s@
CONST	SEGMENT
??_C@_0ED@FIDDECIG@Bad?5unicode?5escape?5sequence?5in?5s@ DB 'Bad unicode'
	DB	' escape sequence in string: hexadecimal digit expected.', 00H ; `string'
CONST	ENDS
;	COMDAT ??_C@_0DN@BPAHJPFJ@Bad?5unicode?5escape?5sequence?5in?5s@
CONST	SEGMENT
??_C@_0DN@BPAHJPFJ@Bad?5unicode?5escape?5sequence?5in?5s@ DB 'Bad unicode'
	DB	' escape sequence in string: four digits expected.', 00H ; `string'
CONST	ENDS
;	COMDAT ??_C@_0FA@BGMMPLKB@expecting?5another?5?2u?5token?5to?5be@
CONST	SEGMENT
??_C@_0FA@BGMMPLKB@expecting?5another?5?2u?5token?5to?5be@ DB 'expecting '
	DB	'another \u token to begin the second half of a unicode surrog'
	DB	'ate pair', 00H				; `string'
CONST	ENDS
;	COMDAT ??_C@_0EE@LMPEHADE@additional?5six?5characters?5expect@
CONST	SEGMENT
??_C@_0EE@LMPEHADE@additional?5six?5characters?5expect@ DB 'additional si'
	DB	'x characters expected to parse unicode surrogate pair.', 00H ; `string'
CONST	ENDS
;	COMDAT ??_C@_0BO@NDEEJNNB@Bad?5escape?5sequence?5in?5string?$AA@
CONST	SEGMENT
??_C@_0BO@NDEEJNNB@Bad?5escape?5sequence?5in?5string?$AA@ DB 'Bad escape '
	DB	'sequence in string', 00H			; `string'
CONST	ENDS
;	COMDAT ??_C@_0CA@DPGKPPOE@Empty?5escape?5sequence?5in?5string?$AA@
CONST	SEGMENT
??_C@_0CA@DPGKPPOE@Empty?5escape?5sequence?5in?5string?$AA@ DB 'Empty esc'
	DB	'ape sequence in string', 00H		; `string'
CONST	ENDS
;	COMDAT ??_C@_03DLDNIBIK@?$CFlf?$AA@
CONST	SEGMENT
??_C@_03DLDNIBIK@?$CFlf?$AA@ DB '%lf', 00H		; `string'
CONST	ENDS
;	COMDAT ??_C@_01GEODFPGF@?8?$AA@
CONST	SEGMENT
??_C@_01GEODFPGF@?8?$AA@ DB '''', 00H			; `string'
CONST	ENDS
;	COMDAT ??_C@_0BD@HHNBFDKF@?8?5is?5not?5a?5number?4?$AA@
CONST	SEGMENT
??_C@_0BD@HHNBFDKF@?8?5is?5not?5a?5number?4?$AA@ DB ''' is not a number.', 00H ; `string'
CONST	ENDS
;	COMDAT ??_C@_0CI@DPCANLPO@Missing?5?8?0?8?5or?5?8?$FN?8?5in?5array?5decl@
CONST	SEGMENT
??_C@_0CI@DPCANLPO@Missing?5?8?0?8?5or?5?8?$FN?8?5in?5array?5decl@ DB 'Mi'
	DB	'ssing '','' or '']'' in array declaration', 00H ; `string'
CONST	ENDS
;	COMDAT ??_C@_0CC@JNCGHFHN@Missing?5?8?$HN?8?5or?5object?5member?5nam@
CONST	SEGMENT
??_C@_0CC@JNCGHFHN@Missing?5?8?$HN?8?5or?5object?5member?5nam@ DB 'Missin'
	DB	'g ''}'' or object member name', 00H		; `string'
CONST	ENDS
;	COMDAT ??_C@_0CJ@NGKOAFKA@Missing?5?8?0?8?5or?5?8?$HN?8?5in?5object?5dec@
CONST	SEGMENT
??_C@_0CJ@NGKOAFKA@Missing?5?8?0?8?5or?5?8?$HN?8?5in?5object?5dec@ DB 'Mi'
	DB	'ssing '','' or ''}'' in object declaration', 00H ; `string'
CONST	ENDS
;	COMDAT ??_C@_0CF@GCCDMCPH@Missing?5?8?3?8?5after?5object?5member?5@
CONST	SEGMENT
??_C@_0CF@GCCDMCPH@Missing?5?8?3?8?5after?5object?5member?5@ DB 'Missing '
	DB	''':'' after object member name', 00H	; `string'
CONST	ENDS
;	COMDAT ??_C@_01EEMJAFIK@?6?$AA@
CONST	SEGMENT
??_C@_01EEMJAFIK@?6?$AA@ DB 0aH, 00H			; `string'
CONST	ENDS
;	COMDAT ??_C@_03KNPGGKC@ull?$AA@
CONST	SEGMENT
??_C@_03KNPGGKC@ull?$AA@ DB 'ull', 00H			; `string'
CONST	ENDS
;	COMDAT ??_C@_04KCECFHEP@alse?$AA@
CONST	SEGMENT
??_C@_04KCECFHEP@alse?$AA@ DB 'alse', 00H		; `string'
CONST	ENDS
;	COMDAT ??_C@_03FFDNHNKN@rue?$AA@
CONST	SEGMENT
??_C@_03FFDNHNKN@rue?$AA@ DB 'rue', 00H			; `string'
CONST	ENDS
;	COMDAT ??_C@_0CP@GDDNKEK@Syntax?5error?3?5value?0?5object?5or?5a@
CONST	SEGMENT
??_C@_0CP@GDDNKEK@Syntax?5error?3?5value?0?5object?5or?5a@ DB 'Syntax err'
	DB	'or: value, object or array expected.', 00H	; `string'
CONST	ENDS
;	COMDAT ??_C@_0EC@HCHNIDLM@A?5valid?5JSON?5document?5must?5be?5ei@
CONST	SEGMENT
??_C@_0EC@HCHNIDLM@A?5valid?5JSON?5document?5must?5be?5ei@ DB 'A valid JS'
	DB	'ON document must be either an array or an object value.', 00H ; `string'
CONST	ENDS
;	COMDAT ??_C@_0BF@OOHOMBOF@ios_base?3?3eofbit?5set?$AA@
CONST	SEGMENT
??_C@_0BF@OOHOMBOF@ios_base?3?3eofbit?5set?$AA@ DB 'ios_base::eofbit set', 00H ; `string'
CONST	ENDS
;	COMDAT ??_C@_0BG@FMKFHCIL@ios_base?3?3failbit?5set?$AA@
CONST	SEGMENT
??_C@_0BG@FMKFHCIL@ios_base?3?3failbit?5set?$AA@ DB 'ios_base::failbit se'
	DB	't', 00H					; `string'
CONST	ENDS
;	COMDAT ??_C@_0BF@PHHKMMFD@ios_base?3?3badbit?5set?$AA@
CONST	SEGMENT
??_C@_0BF@PHHKMMFD@ios_base?3?3badbit?5set?$AA@ DB 'ios_base::badbit set', 00H ; `string'
CONST	ENDS
;	COMDAT ??_C@_0BG@PADBLCHM@iostream?5stream?5error?$AA@
CONST	SEGMENT
??_C@_0BG@PADBLCHM@iostream?5stream?5error?$AA@ DB 'iostream stream error'
	DB	00H						; `string'
CONST	ENDS
;	COMDAT ??_C@_08LLGCOLLL@iostream?$AA@
CONST	SEGMENT
??_C@_08LLGCOLLL@iostream?$AA@ DB 'iostream', 00H	; `string'
CONST	ENDS
;	COMDAT ??_C@_07DCLBNMLN@generic?$AA@
CONST	SEGMENT
??_C@_07DCLBNMLN@generic?$AA@ DB 'generic', 00H		; `string'
CONST	ENDS
;	COMDAT ??_C@_02LMMGGCAJ@?3?5?$AA@
CONST	SEGMENT
??_C@_02LMMGGCAJ@?3?5?$AA@ DB ': ', 00H			; `string'
CONST	ENDS
;	COMDAT ??_C@_0BA@ELKIONDK@bad?5locale?5name?$AA@
CONST	SEGMENT
??_C@_0BA@ELKIONDK@bad?5locale?5name?$AA@ DB 'bad locale name', 00H ; `string'
CONST	ENDS
;	COMDAT ??_C@_08EPJLHIJG@bad?5cast?$AA@
CONST	SEGMENT
??_C@_08EPJLHIJG@bad?5cast?$AA@ DB 'bad cast', 00H	; `string'
PUBLIC	??$_Copy_memmove@PEAPEAPEAVValue@Json@@PEAPEAPEAV12@@std@@YAPEAPEAPEAVValue@Json@@PEAPEAPEAV12@00@Z ; std::_Copy_memmove<Json::Value * * *,Json::Value * * *>
PUBLIC	??$_Copy_memmove@PEAPEAVErrorInfo@Reader@Json@@PEAPEAV123@@std@@YAPEAPEAVErrorInfo@Reader@Json@@PEAPEAV123@00@Z ; std::_Copy_memmove<Json::Reader::ErrorInfo * *,Json::Reader::ErrorInfo * *>
PUBLIC	??$construct@VErrorInfo@Reader@Json@@$$V@?$allocator@VErrorInfo@Reader@Json@@@std@@QEAAXPEAVErrorInfo@Reader@Json@@@Z ; std::allocator<Json::Reader::ErrorInfo>::construct<Json::Reader::ErrorInfo>
PUBLIC	??_GErrorInfo@Reader@Json@@QEAAPEAXI@Z		; Json::Reader::ErrorInfo::`scalar deleting destructor'
PUBLIC	??0ErrorInfo@Reader@Json@@QEAA@AEBV012@@Z	; Json::Reader::ErrorInfo::ErrorInfo
PUBLIC	??$_Uninitialized_copy_al_unchecked1@PEAPEAVValue@Json@@PEAPEAV12@V?$allocator@PEAPEAVValue@Json@@@std@@@std@@YAPEAPEAPEAVValue@Json@@PEAPEAPEAV12@00AEAU?$_Wrap_alloc@V?$allocator@PEAPEAVValue@Json@@@std@@@0@U_Really_trivial_ptr_iterator_tag@0@U?$integral_constant@_N$00@0@@Z ; std::_Uninitialized_copy_al_unchecked1<Json::Value * *,Json::Value * *,std::allocator<Json::Value * *> >
PUBLIC	??$_Ptr_copy_cat@PEAPEAVValue@Json@@PEAPEAV12@@std@@YA?AU_Really_trivial_ptr_iterator_tag@0@AEBQEAPEAPEAVValue@Json@@0@Z ; std::_Ptr_copy_cat<Json::Value * *,Json::Value * *>
PUBLIC	??$construct@U_Container_proxy@std@@U12@@?$allocator@U_Container_proxy@std@@@std@@QEAAXPEAU_Container_proxy@1@$$QEAU21@@Z ; std::allocator<std::_Container_proxy>::construct<std::_Container_proxy,std::_Container_proxy>
PUBLIC	??$destroy@U_Container_proxy@std@@@?$allocator@U_Container_proxy@std@@@std@@QEAAXPEAU_Container_proxy@1@@Z ; std::allocator<std::_Container_proxy>::destroy<std::_Container_proxy>
PUBLIC	??$destroy@VErrorInfo@Reader@Json@@@?$allocator@VErrorInfo@Reader@Json@@@std@@QEAAXPEAVErrorInfo@Reader@Json@@@Z ; std::allocator<Json::Reader::ErrorInfo>::destroy<Json::Reader::ErrorInfo>
PUBLIC	??$_Uninitialized_copy_al_unchecked1@PEAVErrorInfo@Reader@Json@@PEAV123@V?$allocator@PEAVErrorInfo@Reader@Json@@@std@@@std@@YAPEAPEAVErrorInfo@Reader@Json@@PEAPEAV123@00AEAU?$_Wrap_alloc@V?$allocator@PEAVErrorInfo@Reader@Json@@@std@@@0@U_Really_trivial_ptr_iterator_tag@0@U?$integral_constant@_N$00@0@@Z ; std::_Uninitialized_copy_al_unchecked1<Json::Reader::ErrorInfo *,Json::Reader::ErrorInfo *,std::allocator<Json::Reader::ErrorInfo *> >
PUBLIC	??$_Ptr_copy_cat@PEAVErrorInfo@Reader@Json@@PEAV123@@std@@YA?AU_Really_trivial_ptr_iterator_tag@0@AEBQEAPEAVErrorInfo@Reader@Json@@0@Z ; std::_Ptr_copy_cat<Json::Reader::ErrorInfo *,Json::Reader::ErrorInfo *>
PUBLIC	??$destroy@PEAVErrorInfo@Reader@Json@@@?$allocator@VErrorInfo@Reader@Json@@@std@@QEAAXPEAPEAVErrorInfo@Reader@Json@@@Z ; std::allocator<Json::Reader::ErrorInfo>::destroy<Json::Reader::ErrorInfo *>
PUBLIC	??$construct@PEAVValue@Json@@PEAV12@@?$allocator@PEAVValue@Json@@@std@@QEAAXPEAPEAVValue@Json@@$$QEAPEAV23@@Z ; std::allocator<Json::Value *>::construct<Json::Value *,Json::Value *>
PUBLIC	??$destroy@PEAVValue@Json@@@?$allocator@PEAVValue@Json@@@std@@QEAAXPEAPEAVValue@Json@@@Z ; std::allocator<Json::Value *>::destroy<Json::Value *>
PUBLIC	??$destroy@PEAPEAVValue@Json@@@?$allocator@PEAVValue@Json@@@std@@QEAAXPEAPEAPEAVValue@Json@@@Z ; std::allocator<Json::Value *>::destroy<Json::Value * *>
PUBLIC	??$construct@VErrorInfo@Reader@Json@@$$V@?$allocator_traits@V?$allocator@VErrorInfo@Reader@Json@@@std@@@std@@SAXAEAV?$allocator@VErrorInfo@Reader@Json@@@1@PEAVErrorInfo@Reader@Json@@@Z ; std::allocator_traits<std::allocator<Json::Reader::ErrorInfo> >::construct<Json::Reader::ErrorInfo>
PUBLIC	??$construct@VErrorInfo@Reader@Json@@AEBV123@@?$allocator@VErrorInfo@Reader@Json@@@std@@QEAAXPEAVErrorInfo@Reader@Json@@AEBV234@@Z ; std::allocator<Json::Reader::ErrorInfo>::construct<Json::Reader::ErrorInfo,Json::Reader::ErrorInfo const &>
PUBLIC	??$?8DD@std@@YA_NAEBV?$allocator@D@0@0@Z	; std::operator==<char,char>
PUBLIC	?_Osfx@?$basic_ostream@DU?$char_traits@D@std@@@std@@QEAAXXZ ; std::basic_ostream<char,std::char_traits<char> >::_Osfx
PUBLIC	??0_Sentry_base@?$basic_ostream@DU?$char_traits@D@std@@@std@@QEAA@AEAV12@@Z ; std::basic_ostream<char,std::char_traits<char> >::_Sentry_base::_Sentry_base
PUBLIC	??1_Sentry_base@?$basic_ostream@DU?$char_traits@D@std@@@std@@QEAA@XZ ; std::basic_ostream<char,std::char_traits<char> >::_Sentry_base::~_Sentry_base
PUBLIC	?pubsync@?$basic_streambuf@DU?$char_traits@D@std@@@std@@QEAAHXZ ; std::basic_streambuf<char,std::char_traits<char> >::pubsync
PUBLIC	??0sentry@?$basic_ostream@DU?$char_traits@D@std@@@std@@QEAA@AEAV12@@Z ; std::basic_ostream<char,std::char_traits<char> >::sentry::sentry
PUBLIC	??1sentry@?$basic_ostream@DU?$char_traits@D@std@@@std@@QEAA@XZ ; std::basic_ostream<char,std::char_traits<char> >::sentry::~sentry
PUBLIC	??Bsentry@?$basic_ostream@DU?$char_traits@D@std@@@std@@QEBA_NXZ ; std::basic_ostream<char,std::char_traits<char> >::sentry::operator bool
PUBLIC	?tie@?$basic_ios@DU?$char_traits@D@std@@@std@@QEBAPEAV?$basic_ostream@DU?$char_traits@D@std@@@2@XZ ; std::basic_ios<char,std::char_traits<char> >::tie
PUBLIC	?flush@?$basic_ostream@DU?$char_traits@D@std@@@std@@QEAAAEAV12@XZ ; std::basic_ostream<char,std::char_traits<char> >::flush
PUBLIC	?clear@?$basic_ios@DU?$char_traits@D@std@@@std@@QEAAXH_N@Z ; std::basic_ios<char,std::char_traits<char> >::clear
PUBLIC	?gptr@?$basic_streambuf@DU?$char_traits@D@std@@@std@@IEBAPEADXZ ; std::basic_streambuf<char,std::char_traits<char> >::gptr
PUBLIC	?_Gninc@?$basic_streambuf@DU?$char_traits@D@std@@@std@@IEAAPEADXZ ; std::basic_streambuf<char,std::char_traits<char> >::_Gninc
PUBLIC	?_Gnpreinc@?$basic_streambuf@DU?$char_traits@D@std@@@std@@IEAAPEADXZ ; std::basic_streambuf<char,std::char_traits<char> >::_Gnpreinc
PUBLIC	?_Gnavail@?$basic_streambuf@DU?$char_traits@D@std@@@std@@IEBA_JXZ ; std::basic_streambuf<char,std::char_traits<char> >::_Gnavail
PUBLIC	?_Ipfx@?$basic_istream@DU?$char_traits@D@std@@@std@@QEAA_N_N@Z ; std::basic_istream<char,std::char_traits<char> >::_Ipfx
PUBLIC	??0_Sentry_base@?$basic_istream@DU?$char_traits@D@std@@@std@@QEAA@AEAV12@@Z ; std::basic_istream<char,std::char_traits<char> >::_Sentry_base::_Sentry_base
PUBLIC	?setstate@?$basic_ios@DU?$char_traits@D@std@@@std@@QEAAXH_N@Z ; std::basic_ios<char,std::char_traits<char> >::setstate
PUBLIC	?rdbuf@?$basic_ios@DU?$char_traits@D@std@@@std@@QEBAPEAV?$basic_streambuf@DU?$char_traits@D@std@@@2@XZ ; std::basic_ios<char,std::char_traits<char> >::rdbuf
PUBLIC	?sbumpc@?$basic_streambuf@DU?$char_traits@D@std@@@std@@QEAAHXZ ; std::basic_streambuf<char,std::char_traits<char> >::sbumpc
PUBLIC	?sgetc@?$basic_streambuf@DU?$char_traits@D@std@@@std@@QEAAHXZ ; std::basic_streambuf<char,std::char_traits<char> >::sgetc
PUBLIC	?snextc@?$basic_streambuf@DU?$char_traits@D@std@@@std@@QEAAHXZ ; std::basic_streambuf<char,std::char_traits<char> >::snextc
PUBLIC	??1_Sentry_base@?$basic_istream@DU?$char_traits@D@std@@@std@@QEAA@XZ ; std::basic_istream<char,std::char_traits<char> >::_Sentry_base::~_Sentry_base
PUBLIC	??0sentry@?$basic_istream@DU?$char_traits@D@std@@@std@@QEAA@AEAV12@_N@Z ; std::basic_istream<char,std::char_traits<char> >::sentry::sentry
PUBLIC	??Bsentry@?$basic_istream@DU?$char_traits@D@std@@@std@@QEBA_NXZ ; std::basic_istream<char,std::char_traits<char> >::sentry::operator bool
PUBLIC	??1sentry@?$basic_istream@DU?$char_traits@D@std@@@std@@QEAA@XZ ; std::basic_istream<char,std::char_traits<char> >::sentry::~sentry
PUBLIC	??$_Destroy_range1@V?$allocator@PEAPEAVValue@Json@@@std@@PEAPEAPEAVValue@Json@@@std@@YAXPEAPEAPEAVValue@Json@@0AEAU?$_Wrap_alloc@V?$allocator@PEAPEAVValue@Json@@@std@@@0@U?$integral_constant@_N$00@0@@Z ; std::_Destroy_range1<std::allocator<Json::Value * *>,Json::Value * * *>
PUBLIC	??$_Uninitialized_default_fill_n1@PEAPEAPEAVValue@Json@@_KV?$allocator@PEAPEAVValue@Json@@@std@@@std@@YAXPEAPEAPEAVValue@Json@@_KAEAU?$_Wrap_alloc@V?$allocator@PEAPEAVValue@Json@@@std@@@0@U?$integral_constant@_N$00@0@@Z ; std::_Uninitialized_default_fill_n1<Json::Value * * *,unsigned __int64,std::allocator<Json::Value * *> >
PUBLIC	??$_Rechecked@PEAPEAPEAVValue@Json@@PEAPEAPEAV12@@std@@YAAEAPEAPEAPEAVValue@Json@@AEAPEAPEAPEAV12@PEAPEAPEAV12@@Z ; std::_Rechecked<Json::Value * * *,Json::Value * * *>
PUBLIC	??$_Uninitialized_copy_al_unchecked@PEAPEAPEAVValue@Json@@PEAPEAPEAV12@V?$allocator@PEAPEAVValue@Json@@@std@@@std@@YAPEAPEAPEAVValue@Json@@PEAPEAPEAV12@00AEAU?$_Wrap_alloc@V?$allocator@PEAPEAVValue@Json@@@std@@@0@@Z ; std::_Uninitialized_copy_al_unchecked<Json::Value * * *,Json::Value * * *,std::allocator<Json::Value * *> >
PUBLIC	??$_Unchecked@PEAPEAPEAVValue@Json@@@std@@YAPEAPEAPEAVValue@Json@@PEAPEAPEAV12@@Z ; std::_Unchecked<Json::Value * * *>
PUBLIC	??$?0PEAVValue@Json@@@?$allocator@U_Container_proxy@std@@@std@@QEAA@AEBV?$allocator@PEAVValue@Json@@@1@@Z ; std::allocator<std::_Container_proxy>::allocator<std::_Container_proxy><Json::Value *>
PUBLIC	??$construct@U_Container_proxy@std@@U12@@?$allocator_traits@V?$allocator@U_Container_proxy@std@@@std@@@std@@SAXAEAV?$allocator@U_Container_proxy@std@@@1@PEAU_Container_proxy@1@$$QEAU31@@Z ; std::allocator_traits<std::allocator<std::_Container_proxy> >::construct<std::_Container_proxy,std::_Container_proxy>
PUBLIC	??$forward@U_Container_proxy@std@@@std@@YA$$QEAU_Container_proxy@0@AEAU10@@Z ; std::forward<std::_Container_proxy>
PUBLIC	??$destroy@U_Container_proxy@std@@@?$allocator_traits@V?$allocator@U_Container_proxy@std@@@std@@@std@@SAXAEAV?$allocator@U_Container_proxy@std@@@1@PEAU_Container_proxy@1@@Z ; std::allocator_traits<std::allocator<std::_Container_proxy> >::destroy<std::_Container_proxy>
PUBLIC	??$?0VErrorInfo@Reader@Json@@@?$allocator@U_Container_proxy@std@@@std@@QEAA@AEBV?$allocator@VErrorInfo@Reader@Json@@@1@@Z ; std::allocator<std::_Container_proxy>::allocator<std::_Container_proxy><Json::Reader::ErrorInfo>
PUBLIC	??$_Pocca@U?$_Wrap_alloc@V?$allocator@D@std@@@std@@@std@@YAXAEAU?$_Wrap_alloc@V?$allocator@D@std@@@0@AEBU10@U?$integral_constant@_N$0A@@0@@Z ; std::_Pocca<std::_Wrap_alloc<std::allocator<char> > >
PUBLIC	??$destroy@VErrorInfo@Reader@Json@@@?$allocator_traits@V?$allocator@VErrorInfo@Reader@Json@@@std@@@std@@SAXAEAV?$allocator@VErrorInfo@Reader@Json@@@1@PEAVErrorInfo@Reader@Json@@@Z ; std::allocator_traits<std::allocator<Json::Reader::ErrorInfo> >::destroy<Json::Reader::ErrorInfo>
PUBLIC	??$_Destroy_range1@V?$allocator@PEAVErrorInfo@Reader@Json@@@std@@PEAPEAVErrorInfo@Reader@Json@@@std@@YAXPEAPEAVErrorInfo@Reader@Json@@0AEAU?$_Wrap_alloc@V?$allocator@PEAVErrorInfo@Reader@Json@@@std@@@0@U?$integral_constant@_N$00@0@@Z ; std::_Destroy_range1<std::allocator<Json::Reader::ErrorInfo *>,Json::Reader::ErrorInfo * *>
PUBLIC	??$_Uninitialized_default_fill_n1@PEAPEAVErrorInfo@Reader@Json@@_KV?$allocator@PEAVErrorInfo@Reader@Json@@@std@@@std@@YAXPEAPEAVErrorInfo@Reader@Json@@_KAEAU?$_Wrap_alloc@V?$allocator@PEAVErrorInfo@Reader@Json@@@std@@@0@U?$integral_constant@_N$00@0@@Z ; std::_Uninitialized_default_fill_n1<Json::Reader::ErrorInfo * *,unsigned __int64,std::allocator<Json::Reader::ErrorInfo *> >
PUBLIC	??$_Rechecked@PEAPEAVErrorInfo@Reader@Json@@PEAPEAV123@@std@@YAAEAPEAPEAVErrorInfo@Reader@Json@@AEAPEAPEAV123@PEAPEAV123@@Z ; std::_Rechecked<Json::Reader::ErrorInfo * *,Json::Reader::ErrorInfo * *>
PUBLIC	??$_Uninitialized_copy_al_unchecked@PEAPEAVErrorInfo@Reader@Json@@PEAPEAV123@V?$allocator@PEAVErrorInfo@Reader@Json@@@std@@@std@@YAPEAPEAVErrorInfo@Reader@Json@@PEAPEAV123@00AEAU?$_Wrap_alloc@V?$allocator@PEAVErrorInfo@Reader@Json@@@std@@@0@@Z ; std::_Uninitialized_copy_al_unchecked<Json::Reader::ErrorInfo * *,Json::Reader::ErrorInfo * *,std::allocator<Json::Reader::ErrorInfo *> >
PUBLIC	??$_Unchecked@PEAPEAVErrorInfo@Reader@Json@@@std@@YAPEAPEAVErrorInfo@Reader@Json@@PEAPEAV123@@Z ; std::_Unchecked<Json::Reader::ErrorInfo * *>
PUBLIC	??$destroy@PEAVErrorInfo@Reader@Json@@@?$allocator_traits@V?$allocator@VErrorInfo@Reader@Json@@@std@@@std@@SAXAEAV?$allocator@VErrorInfo@Reader@Json@@@1@PEAPEAVErrorInfo@Reader@Json@@@Z ; std::allocator_traits<std::allocator<Json::Reader::ErrorInfo> >::destroy<Json::Reader::ErrorInfo *>
PUBLIC	??$?0VErrorInfo@Reader@Json@@@?$allocator@PEAVErrorInfo@Reader@Json@@@std@@QEAA@AEBV?$allocator@VErrorInfo@Reader@Json@@@1@@Z ; std::allocator<Json::Reader::ErrorInfo *>::allocator<Json::Reader::ErrorInfo *><Json::Reader::ErrorInfo>
PUBLIC	??$forward@AEAU?$_Wrap_alloc@V?$allocator@VErrorInfo@Reader@Json@@@std@@@std@@@std@@YAAEAU?$_Wrap_alloc@V?$allocator@VErrorInfo@Reader@Json@@@std@@@0@AEAU10@@Z ; std::forward<std::_Wrap_alloc<std::allocator<Json::Reader::ErrorInfo> > &>
PUBLIC	??$construct@PEAVValue@Json@@PEAV12@@?$allocator_traits@V?$allocator@PEAVValue@Json@@@std@@@std@@SAXAEAV?$allocator@PEAVValue@Json@@@1@PEAPEAVValue@Json@@$$QEAPEAV34@@Z ; std::allocator_traits<std::allocator<Json::Value *> >::construct<Json::Value *,Json::Value *>
PUBLIC	??$destroy@PEAVValue@Json@@@?$allocator_traits@V?$allocator@PEAVValue@Json@@@std@@@std@@SAXAEAV?$allocator@PEAVValue@Json@@@1@PEAPEAVValue@Json@@@Z ; std::allocator_traits<std::allocator<Json::Value *> >::destroy<Json::Value *>
PUBLIC	??$destroy@PEAPEAVValue@Json@@@?$allocator_traits@V?$allocator@PEAVValue@Json@@@std@@@std@@SAXAEAV?$allocator@PEAVValue@Json@@@1@PEAPEAPEAVValue@Json@@@Z ; std::allocator_traits<std::allocator<Json::Value *> >::destroy<Json::Value * *>
PUBLIC	??$?0PEAVValue@Json@@@?$allocator@PEAPEAVValue@Json@@@std@@QEAA@AEBV?$allocator@PEAVValue@Json@@@1@@Z ; std::allocator<Json::Value * *>::allocator<Json::Value * *><Json::Value *>
PUBLIC	??$forward@AEAU?$_Wrap_alloc@V?$allocator@PEAVValue@Json@@@std@@@std@@@std@@YAAEAU?$_Wrap_alloc@V?$allocator@PEAVValue@Json@@@std@@@0@AEAU10@@Z ; std::forward<std::_Wrap_alloc<std::allocator<Json::Value *> > &>
PUBLIC	??$?8V?$allocator@D@std@@V01@@std@@YA_NAEBU?$_Wrap_alloc@V?$allocator@D@std@@@0@0@Z ; std::operator==<std::allocator<char>,std::allocator<char> >
PUBLIC	??$construct@VErrorInfo@Reader@Json@@$$V@?$_Wrap_alloc@V?$allocator@VErrorInfo@Reader@Json@@@std@@@std@@QEAAXPEAVErrorInfo@Reader@Json@@@Z ; std::_Wrap_alloc<std::allocator<Json::Reader::ErrorInfo> >::construct<Json::Reader::ErrorInfo>
PUBLIC	??$construct@VErrorInfo@Reader@Json@@AEBV123@@?$allocator_traits@V?$allocator@VErrorInfo@Reader@Json@@@std@@@std@@SAXAEAV?$allocator@VErrorInfo@Reader@Json@@@1@PEAVErrorInfo@Reader@Json@@AEBV345@@Z ; std::allocator_traits<std::allocator<Json::Reader::ErrorInfo> >::construct<Json::Reader::ErrorInfo,Json::Reader::ErrorInfo const &>
PUBLIC	??$forward@AEBVErrorInfo@Reader@Json@@@std@@YAAEBVErrorInfo@Reader@Json@@AEBV123@@Z ; std::forward<Json::Reader::ErrorInfo const &>
PUBLIC	??$getline@DU?$char_traits@D@std@@V?$allocator@D@2@@std@@YAAEAV?$basic_istream@DU?$char_traits@D@std@@@0@$$QEAV10@AEAV?$basic_string@DU?$char_traits@D@std@@V?$allocator@D@2@@0@D@Z ; std::getline<char,std::char_traits<char>,std::allocator<char> >
PUBLIC	?insert@?$basic_string@DU?$char_traits@D@std@@V?$allocator@D@2@@std@@QEAAAEAV12@_KAEBV12@00@Z ; std::basic_string<char,std::char_traits<char>,std::allocator<char> >::insert
PUBLIC	?insert@?$basic_string@DU?$char_traits@D@std@@V?$allocator@D@2@@std@@QEAAAEAV12@_KPEBD0@Z ; std::basic_string<char,std::char_traits<char>,std::allocator<char> >::insert
PUBLIC	??0?$allocator@VErrorInfo@Reader@Json@@@std@@QEAA@XZ ; std::allocator<Json::Reader::ErrorInfo>::allocator<Json::Reader::ErrorInfo>
PUBLIC	??0?$allocator@PEAVValue@Json@@@std@@QEAA@XZ	; std::allocator<Json::Value *>::allocator<Json::Value *>
PUBLIC	?insert@?$basic_string@DU?$char_traits@D@std@@V?$allocator@D@2@@std@@QEAAAEAV12@_KPEBD@Z ; std::basic_string<char,std::char_traits<char>,std::allocator<char> >::insert
PUBLIC	??0?$_Wrap_alloc@V?$allocator@PEAVValue@Json@@@std@@@std@@QEAA@XZ ; std::_Wrap_alloc<std::allocator<Json::Value *> >::_Wrap_alloc<std::allocator<Json::Value *> >
PUBLIC	??0?$_Deque_val@U?$_Deque_simple_types@PEAVValue@Json@@@std@@@std@@QEAA@XZ ; std::_Deque_val<std::_Deque_simple_types<Json::Value *> >::_Deque_val<std::_Deque_simple_types<Json::Value *> >
PUBLIC	??0?$_Wrap_alloc@V?$allocator@VErrorInfo@Reader@Json@@@std@@@std@@QEAA@XZ ; std::_Wrap_alloc<std::allocator<Json::Reader::ErrorInfo> >::_Wrap_alloc<std::allocator<Json::Reader::ErrorInfo> >
PUBLIC	??0?$_Deque_val@U?$_Deque_simple_types@VErrorInfo@Reader@Json@@@std@@@std@@QEAA@XZ ; std::_Deque_val<std::_Deque_simple_types<Json::Reader::ErrorInfo> >::_Deque_val<std::_Deque_simple_types<Json::Reader::ErrorInfo> >
PUBLIC	??0?$_Immortalizer@V_Iostream_error_category@std@@@std@@QEAA@XZ ; std::_Immortalizer<std::_Iostream_error_category>::_Immortalizer<std::_Iostream_error_category>
PUBLIC	??1?$_Immortalizer@V_Iostream_error_category@std@@@std@@QEAA@XZ ; std::_Immortalizer<std::_Iostream_error_category>::~_Immortalizer<std::_Iostream_error_category>
PUBLIC	??0bad_cast@std@@QEAA@AEBV01@@Z			; std::bad_cast::bad_cast
PUBLIC	??__F_Static@?1???$_Immortalize@V_Iostream_error_category@std@@@std@@YAAEAV_Iostream_error_category@0@XZ@YAXXZ ; `std::_Immortalize<std::_Iostream_error_category>'::`2'::`dynamic atexit destructor for '_Static''
PUBLIC	??$addressof@U_Container_proxy@std@@@std@@YAPEAU_Container_proxy@0@AEAU10@@Z ; std::addressof<std::_Container_proxy>
PUBLIC	??$_Destroy_range@V?$allocator@PEAPEAVValue@Json@@@std@@PEAPEAPEAVValue@Json@@@std@@YAXPEAPEAPEAVValue@Json@@0AEAU?$_Wrap_alloc@V?$allocator@PEAPEAVValue@Json@@@std@@@0@@Z ; std::_Destroy_range<std::allocator<Json::Value * *>,Json::Value * * *>
PUBLIC	??$_Uninitialized_default_fill_n@PEAPEAPEAVValue@Json@@_KV?$allocator@PEAPEAVValue@Json@@@std@@@std@@YAXPEAPEAPEAVValue@Json@@_KAEAU?$_Wrap_alloc@V?$allocator@PEAPEAVValue@Json@@@std@@@0@@Z ; std::_Uninitialized_default_fill_n<Json::Value * * *,unsigned __int64,std::allocator<Json::Value * *> >
PUBLIC	??$_Uninitialized_copy@PEAPEAPEAVValue@Json@@PEAPEAPEAV12@V?$allocator@PEAPEAVValue@Json@@@std@@@std@@YAPEAPEAPEAVValue@Json@@PEAPEAPEAV12@00AEAU?$_Wrap_alloc@V?$allocator@PEAPEAVValue@Json@@@std@@@0@@Z ; std::_Uninitialized_copy<Json::Value * * *,Json::Value * * *,std::allocator<Json::Value * *> >
PUBLIC	??$?0$$V@?$_Compressed_pair@U?$_Wrap_alloc@V?$allocator@PEAVValue@Json@@@std@@@std@@V?$_Deque_val@U?$_Deque_simple_types@PEAVValue@Json@@@std@@@2@$00@std@@QEAA@U_Zero_then_variadic_args_t@1@@Z ; std::_Compressed_pair<std::_Wrap_alloc<std::allocator<Json::Value *> >,std::_Deque_val<std::_Deque_simple_types<Json::Value *> >,1>::_Compressed_pair<std::_Wrap_alloc<std::allocator<Json::Value *> >,std::_Deque_val<std::_Deque_simple_types<Json::Value *> >,1><>
PUBLIC	??$?0AEAU?$_Wrap_alloc@V?$allocator@PEAVValue@Json@@@std@@@std@@@?$_Wrap_alloc@V?$allocator@U_Container_proxy@std@@@std@@@std@@QEAA@AEAU?$_Wrap_alloc@V?$allocator@PEAVValue@Json@@@std@@@1@@Z ; std::_Wrap_alloc<std::allocator<std::_Container_proxy> >::_Wrap_alloc<std::allocator<std::_Container_proxy> ><std::_Wrap_alloc<std::allocator<Json::Value *> > &>
PUBLIC	??$construct@U_Container_proxy@std@@U12@@?$_Wrap_alloc@V?$allocator@U_Container_proxy@std@@@std@@@std@@QEAAXPEAU_Container_proxy@1@$$QEAU21@@Z ; std::_Wrap_alloc<std::allocator<std::_Container_proxy> >::construct<std::_Container_proxy,std::_Container_proxy>
PUBLIC	??$_Unfancy@U_Container_proxy@std@@@std@@YAPEAU_Container_proxy@0@PEAU10@@Z ; std::_Unfancy<std::_Container_proxy>
PUBLIC	??$destroy@U_Container_proxy@std@@@?$_Wrap_alloc@V?$allocator@U_Container_proxy@std@@@std@@@std@@QEAAXPEAU_Container_proxy@1@@Z ; std::_Wrap_alloc<std::allocator<std::_Container_proxy> >::destroy<std::_Container_proxy>
PUBLIC	??$?0AEAU?$_Wrap_alloc@V?$allocator@VErrorInfo@Reader@Json@@@std@@@std@@@?$_Wrap_alloc@V?$allocator@U_Container_proxy@std@@@std@@@std@@QEAA@AEAU?$_Wrap_alloc@V?$allocator@VErrorInfo@Reader@Json@@@std@@@1@@Z ; std::_Wrap_alloc<std::allocator<std::_Container_proxy> >::_Wrap_alloc<std::allocator<std::_Container_proxy> ><std::_Wrap_alloc<std::allocator<Json::Reader::ErrorInfo> > &>
PUBLIC	??$_Pocca@U?$_Wrap_alloc@V?$allocator@D@std@@@std@@@std@@YAXAEAU?$_Wrap_alloc@V?$allocator@D@std@@@0@AEBU10@@Z ; std::_Pocca<std::_Wrap_alloc<std::allocator<char> > >
PUBLIC	??$destroy@VErrorInfo@Reader@Json@@@?$_Wrap_alloc@V?$allocator@VErrorInfo@Reader@Json@@@std@@@std@@QEAAXPEAVErrorInfo@Reader@Json@@@Z ; std::_Wrap_alloc<std::allocator<Json::Reader::ErrorInfo> >::destroy<Json::Reader::ErrorInfo>
PUBLIC	??$_Destroy_range@V?$allocator@PEAVErrorInfo@Reader@Json@@@std@@PEAPEAVErrorInfo@Reader@Json@@@std@@YAXPEAPEAVErrorInfo@Reader@Json@@0AEAU?$_Wrap_alloc@V?$allocator@PEAVErrorInfo@Reader@Json@@@std@@@0@@Z ; std::_Destroy_range<std::allocator<Json::Reader::ErrorInfo *>,Json::Reader::ErrorInfo * *>
PUBLIC	??$_Uninitialized_default_fill_n@PEAPEAVErrorInfo@Reader@Json@@_KV?$allocator@PEAVErrorInfo@Reader@Json@@@std@@@std@@YAXPEAPEAVErrorInfo@Reader@Json@@_KAEAU?$_Wrap_alloc@V?$allocator@PEAVErrorInfo@Reader@Json@@@std@@@0@@Z ; std::_Uninitialized_default_fill_n<Json::Reader::ErrorInfo * *,unsigned __int64,std::allocator<Json::Reader::ErrorInfo *> >
PUBLIC	??$_Uninitialized_copy@PEAPEAVErrorInfo@Reader@Json@@PEAPEAV123@V?$allocator@PEAVErrorInfo@Reader@Json@@@std@@@std@@YAPEAPEAVErrorInfo@Reader@Json@@PEAPEAV123@00AEAU?$_Wrap_alloc@V?$allocator@PEAVErrorInfo@Reader@Json@@@std@@@0@@Z ; std::_Uninitialized_copy<Json::Reader::ErrorInfo * *,Json::Reader::ErrorInfo * *,std::allocator<Json::Reader::ErrorInfo *> >
PUBLIC	??$destroy@PEAVErrorInfo@Reader@Json@@@?$_Wrap_alloc@V?$allocator@VErrorInfo@Reader@Json@@@std@@@std@@QEAAXPEAPEAVErrorInfo@Reader@Json@@@Z ; std::_Wrap_alloc<std::allocator<Json::Reader::ErrorInfo> >::destroy<Json::Reader::ErrorInfo *>
PUBLIC	??$addressof@PEAVErrorInfo@Reader@Json@@@std@@YAPEAPEAVErrorInfo@Reader@Json@@AEAPEAV123@@Z ; std::addressof<Json::Reader::ErrorInfo *>
PUBLIC	??$?0AEAU?$_Wrap_alloc@V?$allocator@VErrorInfo@Reader@Json@@@std@@@std@@@?$_Wrap_alloc@V?$allocator@PEAVErrorInfo@Reader@Json@@@std@@@std@@QEAA@AEAU?$_Wrap_alloc@V?$allocator@VErrorInfo@Reader@Json@@@std@@@1@@Z ; std::_Wrap_alloc<std::allocator<Json::Reader::ErrorInfo *> >::_Wrap_alloc<std::allocator<Json::Reader::ErrorInfo *> ><std::_Wrap_alloc<std::allocator<Json::Reader::ErrorInfo> > &>
PUBLIC	??$construct@PEAVValue@Json@@PEAV12@@?$_Wrap_alloc@V?$allocator@PEAVValue@Json@@@std@@@std@@QEAAXPEAPEAVValue@Json@@$$QEAPEAV23@@Z ; std::_Wrap_alloc<std::allocator<Json::Value *> >::construct<Json::Value *,Json::Value *>
PUBLIC	??$forward@PEAVValue@Json@@@std@@YA$$QEAPEAVValue@Json@@AEAPEAV12@@Z ; std::forward<Json::Value *>
PUBLIC	??$destroy@PEAVValue@Json@@@?$_Wrap_alloc@V?$allocator@PEAVValue@Json@@@std@@@std@@QEAAXPEAPEAVValue@Json@@@Z ; std::_Wrap_alloc<std::allocator<Json::Value *> >::destroy<Json::Value *>
PUBLIC	??$_Unfancy@PEAVValue@Json@@@std@@YAPEAPEAVValue@Json@@PEAPEAV12@@Z ; std::_Unfancy<Json::Value *>
PUBLIC	??$destroy@PEAPEAVValue@Json@@@?$_Wrap_alloc@V?$allocator@PEAVValue@Json@@@std@@@std@@QEAAXPEAPEAPEAVValue@Json@@@Z ; std::_Wrap_alloc<std::allocator<Json::Value *> >::destroy<Json::Value * *>
PUBLIC	??$addressof@PEAPEAVValue@Json@@@std@@YAPEAPEAPEAVValue@Json@@AEAPEAPEAV12@@Z ; std::addressof<Json::Value * *>
PUBLIC	??$?0AEAU?$_Wrap_alloc@V?$allocator@PEAVValue@Json@@@std@@@std@@@?$_Wrap_alloc@V?$allocator@PEAPEAVValue@Json@@@std@@@std@@QEAA@AEAU?$_Wrap_alloc@V?$allocator@PEAVValue@Json@@@std@@@1@@Z ; std::_Wrap_alloc<std::allocator<Json::Value * *> >::_Wrap_alloc<std::allocator<Json::Value * *> ><std::_Wrap_alloc<std::allocator<Json::Value *> > &>
PUBLIC	??$?0$$V@?$_Compressed_pair@U?$_Wrap_alloc@V?$allocator@VErrorInfo@Reader@Json@@@std@@@std@@V?$_Deque_val@U?$_Deque_simple_types@VErrorInfo@Reader@Json@@@std@@@2@$00@std@@QEAA@U_Zero_then_variadic_args_t@1@@Z ; std::_Compressed_pair<std::_Wrap_alloc<std::allocator<Json::Reader::ErrorInfo> >,std::_Deque_val<std::_Deque_simple_types<Json::Reader::ErrorInfo> >,1>::_Compressed_pair<std::_Wrap_alloc<std::allocator<Json::Reader::ErrorInfo> >,std::_Deque_val<std::_Deque_simple_types<Json::Reader::ErrorInfo> >,1><>
PUBLIC	??$?9V?$allocator@D@std@@V01@@std@@YA_NAEBU?$_Wrap_alloc@V?$allocator@D@std@@@0@0@Z ; std::operator!=<std::allocator<char>,std::allocator<char> >
PUBLIC	??$emplace_back@$$V@?$deque@VErrorInfo@Reader@Json@@V?$allocator@VErrorInfo@Reader@Json@@@std@@@std@@QEAAXXZ ; std::deque<Json::Reader::ErrorInfo,std::allocator<Json::Reader::ErrorInfo> >::emplace_back<>
PUBLIC	??$construct@VErrorInfo@Reader@Json@@AEBV123@@?$_Wrap_alloc@V?$allocator@VErrorInfo@Reader@Json@@@std@@@std@@QEAAXPEAVErrorInfo@Reader@Json@@AEBV234@@Z ; std::_Wrap_alloc<std::allocator<Json::Reader::ErrorInfo> >::construct<Json::Reader::ErrorInfo,Json::Reader::ErrorInfo const &>
PUBLIC	??$_Unfancy@VErrorInfo@Reader@Json@@@std@@YAPEAVErrorInfo@Reader@Json@@PEAV123@@Z ; std::_Unfancy<Json::Reader::ErrorInfo>
PUBLIC	??$move@AEAPEAVValue@Json@@@std@@YA$$QEAPEAVValue@Json@@AEAPEAV12@@Z ; std::move<Json::Value * &>
PUBLIC	??$?HDU?$char_traits@D@std@@V?$allocator@D@1@@std@@YA?AV?$basic_string@DU?$char_traits@D@std@@V?$allocator@D@2@@0@$$QEAV10@PEBD@Z ; std::operator+<char,std::char_traits<char>,std::allocator<char> >
PUBLIC	??$?HDU?$char_traits@D@std@@V?$allocator@D@1@@std@@YA?AV?$basic_string@DU?$char_traits@D@std@@V?$allocator@D@2@@0@PEBD$$QEAV10@@Z ; std::operator+<char,std::char_traits<char>,std::allocator<char> >
PUBLIC	??$_Immortalize@V_Iostream_error_category@std@@@std@@YAAEAV_Iostream_error_category@0@XZ ; std::_Immortalize<std::_Iostream_error_category>
PUBLIC	??$use_facet@V?$ctype@D@std@@@std@@YAAEBV?$ctype@D@0@AEBVlocale@0@@Z ; std::use_facet<std::ctype<char> >
PUBLIC	??$__vcrt_va_start_verify_argument_type@QEBD@@YAXXZ ; __vcrt_va_start_verify_argument_type<char const * const>
PUBLIC	?max_size@?$allocator@PEAVValue@Json@@@std@@QEBA_KXZ ; std::allocator<Json::Value *>::max_size
PUBLIC	?max_size@?$allocator@VErrorInfo@Reader@Json@@@std@@QEBA_KXZ ; std::allocator<Json::Reader::ErrorInfo>::max_size
PUBLIC	?max_size@?$allocator_traits@V?$allocator@PEAVValue@Json@@@std@@@std@@SA_KAEBV?$allocator@PEAVValue@Json@@@2@@Z ; std::allocator_traits<std::allocator<Json::Value *> >::max_size
PUBLIC	?_Setcont@?$_Deque_const_iterator@V?$_Deque_val@U?$_Deque_simple_types@PEAVValue@Json@@@std@@@std@@@std@@QEAAXPEBV?$_Deque_val@U?$_Deque_simple_types@PEAVValue@Json@@@std@@@2@@Z ; std::_Deque_const_iterator<std::_Deque_val<std::_Deque_simple_types<Json::Value *> > >::_Setcont
PUBLIC	?_Get_first@?$_Compressed_pair@U?$_Wrap_alloc@V?$allocator@PEAVValue@Json@@@std@@@std@@V?$_Deque_val@U?$_Deque_simple_types@PEAVValue@Json@@@std@@@2@$00@std@@QEBAAEBU?$_Wrap_alloc@V?$allocator@PEAVValue@Json@@@std@@@2@XZ ; std::_Compressed_pair<std::_Wrap_alloc<std::allocator<Json::Value *> >,std::_Deque_val<std::_Deque_simple_types<Json::Value *> >,1>::_Get_first
PUBLIC	?_Getal@?$_Deque_alloc@U?$_Deque_base_types@PEAVValue@Json@@V?$allocator@PEAVValue@Json@@@std@@@std@@@std@@QEBAAEBU?$_Wrap_alloc@V?$allocator@PEAVValue@Json@@@std@@@2@XZ ; std::_Deque_alloc<std::_Deque_base_types<Json::Value *,std::allocator<Json::Value *> > >::_Getal
PUBLIC	?max_size@?$_Wrap_alloc@V?$allocator@PEAVValue@Json@@@std@@@std@@QEBA_KU_Nil@2@@Z ; std::_Wrap_alloc<std::allocator<Json::Value *> >::max_size
PUBLIC	?allocate@?$allocator@PEAPEAVValue@Json@@@std@@QEAAPEAPEAPEAVValue@Json@@_K@Z ; std::allocator<Json::Value * *>::allocate
PUBLIC	??Y?$_Deque_iterator@V?$_Deque_val@U?$_Deque_simple_types@PEAVValue@Json@@@std@@@std@@@std@@QEAAAEAV01@_J@Z ; std::_Deque_iterator<std::_Deque_val<std::_Deque_simple_types<Json::Value *> > >::operator+=
PUBLIC	??0?$_Deque_const_iterator@V?$_Deque_val@U?$_Deque_simple_types@PEAVValue@Json@@@std@@@std@@@std@@QEAA@_KPEBU_Container_base12@1@@Z ; std::_Deque_const_iterator<std::_Deque_val<std::_Deque_simple_types<Json::Value *> > >::_Deque_const_iterator<std::_Deque_val<std::_Deque_simple_types<Json::Value *> > >
PUBLIC	?_Get_second@?$_Compressed_pair@U?$_Wrap_alloc@V?$allocator@PEAVValue@Json@@@std@@@std@@V?$_Deque_val@U?$_Deque_simple_types@PEAVValue@Json@@@std@@@2@$00@std@@QEAAAEAV?$_Deque_val@U?$_Deque_simple_types@PEAVValue@Json@@@std@@@2@XZ ; std::_Compressed_pair<std::_Wrap_alloc<std::allocator<Json::Value *> >,std::_Deque_val<std::_Deque_simple_types<Json::Value *> >,1>::_Get_second
PUBLIC	?_Get_second@?$_Compressed_pair@U?$_Wrap_alloc@V?$allocator@PEAVValue@Json@@@std@@@std@@V?$_Deque_val@U?$_Deque_simple_types@PEAVValue@Json@@@std@@@2@$00@std@@QEBAAEBV?$_Deque_val@U?$_Deque_simple_types@PEAVValue@Json@@@std@@@2@XZ ; std::_Compressed_pair<std::_Wrap_alloc<std::allocator<Json::Value *> >,std::_Deque_val<std::_Deque_simple_types<Json::Value *> >,1>::_Get_second
PUBLIC	?max_size@?$allocator_traits@V?$allocator@VErrorInfo@Reader@Json@@@std@@@std@@SA_KAEBV?$allocator@VErrorInfo@Reader@Json@@@2@@Z ; std::allocator_traits<std::allocator<Json::Reader::ErrorInfo> >::max_size
PUBLIC	?_Get_first@?$_Compressed_pair@U?$_Wrap_alloc@V?$allocator@VErrorInfo@Reader@Json@@@std@@@std@@V?$_Deque_val@U?$_Deque_simple_types@VErrorInfo@Reader@Json@@@std@@@2@$00@std@@QEBAAEBU?$_Wrap_alloc@V?$allocator@VErrorInfo@Reader@Json@@@std@@@2@XZ ; std::_Compressed_pair<std::_Wrap_alloc<std::allocator<Json::Reader::ErrorInfo> >,std::_Deque_val<std::_Deque_simple_types<Json::Reader::ErrorInfo> >,1>::_Get_first
PUBLIC	?deallocate@?$allocator@U_Container_proxy@std@@@std@@QEAAXPEAU_Container_proxy@2@_K@Z ; std::allocator<std::_Container_proxy>::deallocate
PUBLIC	?allocate@?$allocator@U_Container_proxy@std@@@std@@QEAAPEAU_Container_proxy@2@_K@Z ; std::allocator<std::_Container_proxy>::allocate
PUBLIC	?pointer_to@?$pointer_traits@PEAU_Container_proxy@std@@@std@@SAPEAU_Container_proxy@2@AEAU32@@Z ; std::pointer_traits<std::_Container_proxy *>::pointer_to
PUBLIC	?deallocate@?$allocator@VErrorInfo@Reader@Json@@@std@@QEAAXPEAVErrorInfo@Reader@Json@@_K@Z ; std::allocator<Json::Reader::ErrorInfo>::deallocate
PUBLIC	?deallocate@?$allocator@PEAVValue@Json@@@std@@QEAAXPEAPEAVValue@Json@@_K@Z ; std::allocator<Json::Value *>::deallocate
PUBLIC	?allocate@?$allocator@PEAVValue@Json@@@std@@QEAAPEAPEAVValue@Json@@_K@Z ; std::allocator<Json::Value *>::allocate
PUBLIC	?max_size@?$deque@PEAVValue@Json@@V?$allocator@PEAVValue@Json@@@std@@@std@@QEBA_KXZ ; std::deque<Json::Value *,std::allocator<Json::Value *> >::max_size
PUBLIC	?_Xlen@?$deque@PEAVValue@Json@@V?$allocator@PEAVValue@Json@@@std@@@std@@IEBAXXZ ; std::deque<Json::Value *,std::allocator<Json::Value *> >::_Xlen
PUBLIC	?_Alloc_proxy@?$_Deque_alloc@U?$_Deque_base_types@PEAVValue@Json@@V?$allocator@PEAVValue@Json@@@std@@@std@@@std@@QEAAXXZ ; std::_Deque_alloc<std::_Deque_base_types<Json::Value *,std::allocator<Json::Value *> > >::_Alloc_proxy
PUBLIC	?_Myproxy@?$_Deque_alloc@U?$_Deque_base_types@PEAVValue@Json@@V?$allocator@PEAVValue@Json@@@std@@@std@@@std@@QEAAAEAPEAU_Container_proxy@2@XZ ; std::_Deque_alloc<std::_Deque_base_types<Json::Value *,std::allocator<Json::Value *> > >::_Myproxy
PUBLIC	?_Get_data@?$_Deque_alloc@U?$_Deque_base_types@PEAVValue@Json@@V?$allocator@PEAVValue@Json@@@std@@@std@@@std@@QEAAAEAV?$_Deque_val@U?$_Deque_simple_types@PEAVValue@Json@@@std@@@2@XZ ; std::_Deque_alloc<std::_Deque_base_types<Json::Value *,std::allocator<Json::Value *> > >::_Get_data
PUBLIC	?_Get_data@?$_Deque_alloc@U?$_Deque_base_types@PEAVValue@Json@@V?$allocator@PEAVValue@Json@@@std@@@std@@@std@@QEBAAEBV?$_Deque_val@U?$_Deque_simple_types@PEAVValue@Json@@@std@@@2@XZ ; std::_Deque_alloc<std::_Deque_base_types<Json::Value *,std::allocator<Json::Value *> > >::_Get_data
PUBLIC	?deallocate@?$allocator@PEAPEAVValue@Json@@@std@@QEAAXPEAPEAPEAVValue@Json@@_K@Z ; std::allocator<Json::Value * *>::deallocate
PUBLIC	?allocate@?$_Wrap_alloc@V?$allocator@PEAPEAVValue@Json@@@std@@@std@@QEAAPEAPEAPEAVValue@Json@@_K@Z ; std::_Wrap_alloc<std::allocator<Json::Value * *> >::allocate
PUBLIC	?_Getblock@?$_Deque_val@U?$_Deque_simple_types@PEAVValue@Json@@@std@@@std@@QEBA_K_K@Z ; std::_Deque_val<std::_Deque_simple_types<Json::Value *> >::_Getblock
PUBLIC	??0?$_Deque_iterator@V?$_Deque_val@U?$_Deque_simple_types@PEAVValue@Json@@@std@@@std@@@std@@QEAA@_KPEBU_Container_base12@1@@Z ; std::_Deque_iterator<std::_Deque_val<std::_Deque_simple_types<Json::Value *> > >::_Deque_iterator<std::_Deque_val<std::_Deque_simple_types<Json::Value *> > >
PUBLIC	??Z?$_Deque_iterator@V?$_Deque_val@U?$_Deque_simple_types@PEAVValue@Json@@@std@@@std@@@std@@QEAAAEAV01@_J@Z ; std::_Deque_iterator<std::_Deque_val<std::_Deque_simple_types<Json::Value *> > >::operator-=
PUBLIC	??D?$_Deque_const_iterator@V?$_Deque_val@U?$_Deque_simple_types@PEAVValue@Json@@@std@@@std@@@std@@QEBAAEBQEAVValue@Json@@XZ ; std::_Deque_const_iterator<std::_Deque_val<std::_Deque_simple_types<Json::Value *> > >::operator*
PUBLIC	?_Get_first@?$_Compressed_pair@U?$_Wrap_alloc@V?$allocator@PEAVValue@Json@@@std@@@std@@V?$_Deque_val@U?$_Deque_simple_types@PEAVValue@Json@@@std@@@2@$00@std@@QEAAAEAU?$_Wrap_alloc@V?$allocator@PEAVValue@Json@@@std@@@2@XZ ; std::_Compressed_pair<std::_Wrap_alloc<std::allocator<Json::Value *> >,std::_Deque_val<std::_Deque_simple_types<Json::Value *> >,1>::_Get_first
PUBLIC	?_Myproxy@?$_Deque_alloc@U?$_Deque_base_types@VErrorInfo@Reader@Json@@V?$allocator@VErrorInfo@Reader@Json@@@std@@@std@@@std@@QEAAAEAPEAU_Container_proxy@2@XZ ; std::_Deque_alloc<std::_Deque_base_types<Json::Reader::ErrorInfo,std::allocator<Json::Reader::ErrorInfo> > >::_Myproxy
PUBLIC	?_Getal@?$_Deque_alloc@U?$_Deque_base_types@VErrorInfo@Reader@Json@@V?$allocator@VErrorInfo@Reader@Json@@@std@@@std@@@std@@QEBAAEBU?$_Wrap_alloc@V?$allocator@VErrorInfo@Reader@Json@@@std@@@2@XZ ; std::_Deque_alloc<std::_Deque_base_types<Json::Reader::ErrorInfo,std::allocator<Json::Reader::ErrorInfo> > >::_Getal
PUBLIC	?max_size@?$_Wrap_alloc@V?$allocator@VErrorInfo@Reader@Json@@@std@@@std@@QEBA_KU_Nil@2@@Z ; std::_Wrap_alloc<std::allocator<Json::Reader::ErrorInfo> >::max_size
PUBLIC	?deallocate@?$allocator@PEAVErrorInfo@Reader@Json@@@std@@QEAAXPEAPEAVErrorInfo@Reader@Json@@_K@Z ; std::allocator<Json::Reader::ErrorInfo *>::deallocate
PUBLIC	?allocate@?$allocator@PEAVErrorInfo@Reader@Json@@@std@@QEAAPEAPEAVErrorInfo@Reader@Json@@_K@Z ; std::allocator<Json::Reader::ErrorInfo *>::allocate
PUBLIC	?_Get_second@?$_Compressed_pair@U?$_Wrap_alloc@V?$allocator@VErrorInfo@Reader@Json@@@std@@@std@@V?$_Deque_val@U?$_Deque_simple_types@VErrorInfo@Reader@Json@@@std@@@2@$00@std@@QEAAAEAV?$_Deque_val@U?$_Deque_simple_types@VErrorInfo@Reader@Json@@@std@@@2@XZ ; std::_Compressed_pair<std::_Wrap_alloc<std::allocator<Json::Reader::ErrorInfo> >,std::_Deque_val<std::_Deque_simple_types<Json::Reader::ErrorInfo> >,1>::_Get_second
PUBLIC	?address@?$_Wrap_alloc@V?$allocator@U_Container_proxy@std@@@std@@@std@@QEBAPEAU_Container_proxy@2@AEAU32@@Z ; std::_Wrap_alloc<std::allocator<std::_Container_proxy> >::address
PUBLIC	?allocate@?$_Wrap_alloc@V?$allocator@U_Container_proxy@std@@@std@@@std@@QEAAPEAU_Container_proxy@2@_K@Z ; std::_Wrap_alloc<std::allocator<std::_Container_proxy> >::allocate
PUBLIC	?deallocate@?$_Wrap_alloc@V?$allocator@U_Container_proxy@std@@@std@@@std@@QEAAXPEAU_Container_proxy@2@_K@Z ; std::_Wrap_alloc<std::allocator<std::_Container_proxy> >::deallocate
PUBLIC	??0?$_Deque_const_iterator@V?$_Deque_val@U?$_Deque_simple_types@PEAVValue@Json@@@std@@@std@@@std@@QEAA@AEBV01@@Z ; std::_Deque_const_iterator<std::_Deque_val<std::_Deque_simple_types<Json::Value *> > >::_Deque_const_iterator<std::_Deque_val<std::_Deque_simple_types<Json::Value *> > >
PUBLIC	??0?$_Deque_iterator@V?$_Deque_val@U?$_Deque_simple_types@PEAVValue@Json@@@std@@@std@@@std@@QEAA@AEBV01@@Z ; std::_Deque_iterator<std::_Deque_val<std::_Deque_simple_types<Json::Value *> > >::_Deque_iterator<std::_Deque_val<std::_Deque_simple_types<Json::Value *> > >
PUBLIC	?_Chassign@?$basic_string@DU?$char_traits@D@std@@V?$allocator@D@2@@std@@QEAAX_K0D@Z ; std::basic_string<char,std::char_traits<char>,std::allocator<char> >::_Chassign
PUBLIC	?allocate@?$allocator@VErrorInfo@Reader@Json@@@std@@QEAAPEAVErrorInfo@Reader@Json@@_K@Z ; std::allocator<Json::Reader::ErrorInfo>::allocate
PUBLIC	?max_size@?$deque@VErrorInfo@Reader@Json@@V?$allocator@VErrorInfo@Reader@Json@@@std@@@std@@QEBA_KXZ ; std::deque<Json::Reader::ErrorInfo,std::allocator<Json::Reader::ErrorInfo> >::max_size
PUBLIC	?empty@?$deque@VErrorInfo@Reader@Json@@V?$allocator@VErrorInfo@Reader@Json@@@std@@@std@@QEBA_NXZ ; std::deque<Json::Reader::ErrorInfo,std::allocator<Json::Reader::ErrorInfo> >::empty
PUBLIC	?_Xlen@?$deque@VErrorInfo@Reader@Json@@V?$allocator@VErrorInfo@Reader@Json@@@std@@@std@@IEBAXXZ ; std::deque<Json::Reader::ErrorInfo,std::allocator<Json::Reader::ErrorInfo> >::_Xlen
PUBLIC	?end@?$deque@PEAVValue@Json@@V?$allocator@PEAVValue@Json@@@std@@@std@@QEAA?AV?$_Deque_iterator@V?$_Deque_val@U?$_Deque_simple_types@PEAVValue@Json@@@std@@@std@@@2@XZ ; std::deque<Json::Value *,std::allocator<Json::Value *> >::end
PUBLIC	?_Growmap@?$deque@PEAVValue@Json@@V?$allocator@PEAVValue@Json@@@std@@@std@@IEAAX_K@Z ; std::deque<Json::Value *,std::allocator<Json::Value *> >::_Growmap
PUBLIC	?_Getblock@?$_Deque_alloc@U?$_Deque_base_types@PEAVValue@Json@@V?$allocator@PEAVValue@Json@@@std@@@std@@@std@@QEBA_K_K@Z ; std::_Deque_alloc<std::_Deque_base_types<Json::Value *,std::allocator<Json::Value *> > >::_Getblock
PUBLIC	??0?$_Deque_alloc@U?$_Deque_base_types@PEAVValue@Json@@V?$allocator@PEAVValue@Json@@@std@@@std@@@std@@QEAA@XZ ; std::_Deque_alloc<std::_Deque_base_types<Json::Value *,std::allocator<Json::Value *> > >::_Deque_alloc<std::_Deque_base_types<Json::Value *,std::allocator<Json::Value *> > >
PUBLIC	?_Free_proxy@?$_Deque_alloc@U?$_Deque_base_types@PEAVValue@Json@@V?$allocator@PEAVValue@Json@@@std@@@std@@@std@@QEAAXXZ ; std::_Deque_alloc<std::_Deque_base_types<Json::Value *,std::allocator<Json::Value *> > >::_Free_proxy
PUBLIC	?_Orphan_all@?$_Deque_alloc@U?$_Deque_base_types@PEAVValue@Json@@V?$allocator@PEAVValue@Json@@@std@@@std@@@std@@QEAAXXZ ; std::_Deque_alloc<std::_Deque_base_types<Json::Value *,std::allocator<Json::Value *> > >::_Orphan_all
PUBLIC	?_Getal@?$_Deque_alloc@U?$_Deque_base_types@PEAVValue@Json@@V?$allocator@PEAVValue@Json@@@std@@@std@@@std@@QEAAAEAU?$_Wrap_alloc@V?$allocator@PEAVValue@Json@@@std@@@2@XZ ; std::_Deque_alloc<std::_Deque_base_types<Json::Value *,std::allocator<Json::Value *> > >::_Getal
PUBLIC	?_Map@?$_Deque_alloc@U?$_Deque_base_types@PEAVValue@Json@@V?$allocator@PEAVValue@Json@@@std@@@std@@@std@@QEAAAEAPEAPEAPEAVValue@Json@@XZ ; std::_Deque_alloc<std::_Deque_base_types<Json::Value *,std::allocator<Json::Value *> > >::_Map
PUBLIC	?_Mapsize@?$_Deque_alloc@U?$_Deque_base_types@PEAVValue@Json@@V?$allocator@PEAVValue@Json@@@std@@@std@@@std@@QEAAAEA_KXZ ; std::_Deque_alloc<std::_Deque_base_types<Json::Value *,std::allocator<Json::Value *> > >::_Mapsize
PUBLIC	?_Myoff@?$_Deque_alloc@U?$_Deque_base_types@PEAVValue@Json@@V?$allocator@PEAVValue@Json@@@std@@@std@@@std@@QEAAAEA_KXZ ; std::_Deque_alloc<std::_Deque_base_types<Json::Value *,std::allocator<Json::Value *> > >::_Myoff
PUBLIC	?_Mysize@?$_Deque_alloc@U?$_Deque_base_types@PEAVValue@Json@@V?$allocator@PEAVValue@Json@@@std@@@std@@@std@@QEAAAEA_KXZ ; std::_Deque_alloc<std::_Deque_base_types<Json::Value *,std::allocator<Json::Value *> > >::_Mysize
PUBLIC	?_Mysize@?$_Deque_alloc@U?$_Deque_base_types@PEAVValue@Json@@V?$allocator@PEAVValue@Json@@@std@@@std@@@std@@QEBAAEB_KXZ ; std::_Deque_alloc<std::_Deque_base_types<Json::Value *,std::allocator<Json::Value *> > >::_Mysize
PUBLIC	?allocate@?$_Wrap_alloc@V?$allocator@PEAVValue@Json@@@std@@@std@@QEAAPEAPEAVValue@Json@@_K@Z ; std::_Wrap_alloc<std::allocator<Json::Value *> >::allocate
PUBLIC	?deallocate@?$_Wrap_alloc@V?$allocator@PEAVValue@Json@@@std@@@std@@QEAAXPEAPEAVValue@Json@@_K@Z ; std::_Wrap_alloc<std::allocator<Json::Value *> >::deallocate
PUBLIC	?deallocate@?$_Wrap_alloc@V?$allocator@PEAPEAVValue@Json@@@std@@@std@@QEAAXPEAPEAPEAVValue@Json@@_K@Z ; std::_Wrap_alloc<std::allocator<Json::Value * *> >::deallocate
PUBLIC	??D?$_Deque_iterator@V?$_Deque_val@U?$_Deque_simple_types@PEAVValue@Json@@@std@@@std@@@std@@QEBAAEAPEAVValue@Json@@XZ ; std::_Deque_iterator<std::_Deque_val<std::_Deque_simple_types<Json::Value *> > >::operator*
PUBLIC	??G?$_Deque_iterator@V?$_Deque_val@U?$_Deque_simple_types@PEAVValue@Json@@@std@@@std@@@std@@QEBA?AV01@_J@Z ; std::_Deque_iterator<std::_Deque_val<std::_Deque_simple_types<Json::Value *> > >::operator-
PUBLIC	?_Alloc_proxy@?$_Deque_alloc@U?$_Deque_base_types@VErrorInfo@Reader@Json@@V?$allocator@VErrorInfo@Reader@Json@@@std@@@std@@@std@@QEAAXXZ ; std::_Deque_alloc<std::_Deque_base_types<Json::Reader::ErrorInfo,std::allocator<Json::Reader::ErrorInfo> > >::_Alloc_proxy
PUBLIC	?_Free_proxy@?$_Deque_alloc@U?$_Deque_base_types@VErrorInfo@Reader@Json@@V?$allocator@VErrorInfo@Reader@Json@@@std@@@std@@@std@@QEAAXXZ ; std::_Deque_alloc<std::_Deque_base_types<Json::Reader::ErrorInfo,std::allocator<Json::Reader::ErrorInfo> > >::_Free_proxy
PUBLIC	?_Get_data@?$_Deque_alloc@U?$_Deque_base_types@VErrorInfo@Reader@Json@@V?$allocator@VErrorInfo@Reader@Json@@@std@@@std@@@std@@QEAAAEAV?$_Deque_val@U?$_Deque_simple_types@VErrorInfo@Reader@Json@@@std@@@2@XZ ; std::_Deque_alloc<std::_Deque_base_types<Json::Reader::ErrorInfo,std::allocator<Json::Reader::ErrorInfo> > >::_Get_data
PUBLIC	?deallocate@?$_Wrap_alloc@V?$allocator@VErrorInfo@Reader@Json@@@std@@@std@@QEAAXPEAVErrorInfo@Reader@Json@@_K@Z ; std::_Wrap_alloc<std::allocator<Json::Reader::ErrorInfo> >::deallocate
PUBLIC	?allocate@?$_Wrap_alloc@V?$allocator@PEAVErrorInfo@Reader@Json@@@std@@@std@@QEAAPEAPEAVErrorInfo@Reader@Json@@_K@Z ; std::_Wrap_alloc<std::allocator<Json::Reader::ErrorInfo *> >::allocate
PUBLIC	?deallocate@?$_Wrap_alloc@V?$allocator@PEAVErrorInfo@Reader@Json@@@std@@@std@@QEAAXPEAPEAVErrorInfo@Reader@Json@@_K@Z ; std::_Wrap_alloc<std::allocator<Json::Reader::ErrorInfo *> >::deallocate
PUBLIC	?_Get_first@?$_Compressed_pair@U?$_Wrap_alloc@V?$allocator@VErrorInfo@Reader@Json@@@std@@@std@@V?$_Deque_val@U?$_Deque_simple_types@VErrorInfo@Reader@Json@@@std@@@2@$00@std@@QEAAAEAU?$_Wrap_alloc@V?$allocator@VErrorInfo@Reader@Json@@@std@@@2@XZ ; std::_Compressed_pair<std::_Wrap_alloc<std::allocator<Json::Reader::ErrorInfo> >,std::_Deque_val<std::_Deque_simple_types<Json::Reader::ErrorInfo> >,1>::_Get_first
PUBLIC	?_Get_second@?$_Compressed_pair@U?$_Wrap_alloc@V?$allocator@VErrorInfo@Reader@Json@@@std@@@std@@V?$_Deque_val@U?$_Deque_simple_types@VErrorInfo@Reader@Json@@@std@@@2@$00@std@@QEBAAEBV?$_Deque_val@U?$_Deque_simple_types@VErrorInfo@Reader@Json@@@std@@@2@XZ ; std::_Compressed_pair<std::_Wrap_alloc<std::allocator<Json::Reader::ErrorInfo> >,std::_Deque_val<std::_Deque_simple_types<Json::Reader::ErrorInfo> >,1>::_Get_second
PUBLIC	??1?$_Deque_const_iterator@V?$_Deque_val@U?$_Deque_simple_types@PEAVValue@Json@@@std@@@std@@@std@@QEAA@XZ ; std::_Deque_const_iterator<std::_Deque_val<std::_Deque_simple_types<Json::Value *> > >::~_Deque_const_iterator<std::_Deque_val<std::_Deque_simple_types<Json::Value *> > >
PUBLIC	??1?$_Deque_val@U?$_Deque_simple_types@PEAVValue@Json@@@std@@@std@@QEAA@XZ ; std::_Deque_val<std::_Deque_simple_types<Json::Value *> >::~_Deque_val<std::_Deque_simple_types<Json::Value *> >
PUBLIC	??1?$_Deque_val@U?$_Deque_simple_types@VErrorInfo@Reader@Json@@@std@@@std@@QEAA@XZ ; std::_Deque_val<std::_Deque_simple_types<Json::Reader::ErrorInfo> >::~_Deque_val<std::_Deque_simple_types<Json::Reader::ErrorInfo> >
PUBLIC	??1?$_Deque_iterator@V?$_Deque_val@U?$_Deque_simple_types@PEAVValue@Json@@@std@@@std@@@std@@QEAA@XZ ; std::_Deque_iterator<std::_Deque_val<std::_Deque_simple_types<Json::Value *> > >::~_Deque_iterator<std::_Deque_val<std::_Deque_simple_types<Json::Value *> > >
PUBLIC	??1?$_Compressed_pair@U?$_Wrap_alloc@V?$allocator@PEAVValue@Json@@@std@@@std@@V?$_Deque_val@U?$_Deque_simple_types@PEAVValue@Json@@@std@@@2@$00@std@@QEAA@XZ ; std::_Compressed_pair<std::_Wrap_alloc<std::allocator<Json::Value *> >,std::_Deque_val<std::_Deque_simple_types<Json::Value *> >,1>::~_Compressed_pair<std::_Wrap_alloc<std::allocator<Json::Value *> >,std::_Deque_val<std::_Deque_simple_types<Json::Value *> >,1>
PUBLIC	??1?$_Compressed_pair@U?$_Wrap_alloc@V?$allocator@VErrorInfo@Reader@Json@@@std@@@std@@V?$_Deque_val@U?$_Deque_simple_types@VErrorInfo@Reader@Json@@@std@@@2@$00@std@@QEAA@XZ ; std::_Compressed_pair<std::_Wrap_alloc<std::allocator<Json::Reader::ErrorInfo> >,std::_Deque_val<std::_Deque_simple_types<Json::Reader::ErrorInfo> >,1>::~_Compressed_pair<std::_Wrap_alloc<std::allocator<Json::Reader::ErrorInfo> >,std::_Deque_val<std::_Deque_simple_types<Json::Reader::ErrorInfo> >,1>
PUBLIC	?append@?$basic_string@DU?$char_traits@D@std@@V?$allocator@D@2@@std@@QEAAAEAV12@AEBV12@_K1@Z ; std::basic_string<char,std::char_traits<char>,std::allocator<char> >::append
PUBLIC	?append@?$basic_string@DU?$char_traits@D@std@@V?$allocator@D@2@@std@@QEAAAEAV12@PEBD_K@Z ; std::basic_string<char,std::char_traits<char>,std::allocator<char> >::append
PUBLIC	?append@?$basic_string@DU?$char_traits@D@std@@V?$allocator@D@2@@std@@QEAAAEAV12@_KD@Z ; std::basic_string<char,std::char_traits<char>,std::allocator<char> >::append
PUBLIC	?assign@?$basic_string@DU?$char_traits@D@std@@V?$allocator@D@2@@std@@QEAAAEAV12@AEBV12@@Z ; std::basic_string<char,std::char_traits<char>,std::allocator<char> >::assign
PUBLIC	?size@?$basic_string@DU?$char_traits@D@std@@V?$allocator@D@2@@std@@QEBA_KXZ ; std::basic_string<char,std::char_traits<char>,std::allocator<char> >::size
PUBLIC	?resize@?$basic_string@DU?$char_traits@D@std@@V?$allocator@D@2@@std@@QEAAX_KD@Z ; std::basic_string<char,std::char_traits<char>,std::allocator<char> >::resize
PUBLIC	?_Copy_alloc@?$_String_alloc@U?$_String_base_types@DV?$allocator@D@std@@@std@@@std@@QEAAXAEBU?$_Wrap_alloc@V?$allocator@D@std@@@2@@Z ; std::_String_alloc<std::_String_base_types<char,std::allocator<char> > >::_Copy_alloc
PUBLIC	?_Tidy@?$_Yarn@D@std@@AEAAXXZ			; std::_Yarn<char>::_Tidy
PUBLIC	?_Tidy@?$_Yarn@_W@std@@AEAAXXZ			; std::_Yarn<wchar_t>::_Tidy
PUBLIC	?pop_back@?$deque@VErrorInfo@Reader@Json@@V?$allocator@VErrorInfo@Reader@Json@@@std@@@std@@QEAAXXZ ; std::deque<Json::Reader::ErrorInfo,std::allocator<Json::Reader::ErrorInfo> >::pop_back
PUBLIC	?_Growmap@?$deque@VErrorInfo@Reader@Json@@V?$allocator@VErrorInfo@Reader@Json@@@std@@@std@@IEAAX_K@Z ; std::deque<Json::Reader::ErrorInfo,std::allocator<Json::Reader::ErrorInfo> >::_Growmap
PUBLIC	?_Tidy@?$deque@VErrorInfo@Reader@Json@@V?$allocator@VErrorInfo@Reader@Json@@@std@@@std@@IEAAXXZ ; std::deque<Json::Reader::ErrorInfo,std::allocator<Json::Reader::ErrorInfo> >::_Tidy
PUBLIC	??0?$deque@PEAVValue@Json@@V?$allocator@PEAVValue@Json@@@std@@@std@@QEAA@XZ ; std::deque<Json::Value *,std::allocator<Json::Value *> >::deque<Json::Value *,std::allocator<Json::Value *> >
PUBLIC	?push_back@?$deque@PEAVValue@Json@@V?$allocator@PEAVValue@Json@@@std@@@std@@QEAAX$$QEAPEAVValue@Json@@@Z ; std::deque<Json::Value *,std::allocator<Json::Value *> >::push_back
PUBLIC	?empty@?$deque@PEAVValue@Json@@V?$allocator@PEAVValue@Json@@@std@@@std@@QEBA_NXZ ; std::deque<Json::Value *,std::allocator<Json::Value *> >::empty
PUBLIC	?back@?$deque@PEAVValue@Json@@V?$allocator@PEAVValue@Json@@@std@@@std@@QEAAAEAPEAVValue@Json@@XZ ; std::deque<Json::Value *,std::allocator<Json::Value *> >::back
PUBLIC	?pop_back@?$deque@PEAVValue@Json@@V?$allocator@PEAVValue@Json@@@std@@@std@@QEAAXXZ ; std::deque<Json::Value *,std::allocator<Json::Value *> >::pop_back
PUBLIC	?_Tidy@?$deque@PEAVValue@Json@@V?$allocator@PEAVValue@Json@@@std@@@std@@IEAAXXZ ; std::deque<Json::Value *,std::allocator<Json::Value *> >::_Tidy
PUBLIC	??1?$_Deque_alloc@U?$_Deque_base_types@PEAVValue@Json@@V?$allocator@PEAVValue@Json@@@std@@@std@@@std@@QEAA@XZ ; std::_Deque_alloc<std::_Deque_base_types<Json::Value *,std::allocator<Json::Value *> > >::~_Deque_alloc<std::_Deque_base_types<Json::Value *,std::allocator<Json::Value *> > >
PUBLIC	?_Getblock@?$_Deque_alloc@U?$_Deque_base_types@VErrorInfo@Reader@Json@@V?$allocator@VErrorInfo@Reader@Json@@@std@@@std@@@std@@QEBA_K_K@Z ; std::_Deque_alloc<std::_Deque_base_types<Json::Reader::ErrorInfo,std::allocator<Json::Reader::ErrorInfo> > >::_Getblock
PUBLIC	??0?$_Deque_alloc@U?$_Deque_base_types@VErrorInfo@Reader@Json@@V?$allocator@VErrorInfo@Reader@Json@@@std@@@std@@@std@@QEAA@XZ ; std::_Deque_alloc<std::_Deque_base_types<Json::Reader::ErrorInfo,std::allocator<Json::Reader::ErrorInfo> > >::_Deque_alloc<std::_Deque_base_types<Json::Reader::ErrorInfo,std::allocator<Json::Reader::ErrorInfo> > >
PUBLIC	??1?$_Deque_alloc@U?$_Deque_base_types@VErrorInfo@Reader@Json@@V?$allocator@VErrorInfo@Reader@Json@@@std@@@std@@@std@@QEAA@XZ ; std::_Deque_alloc<std::_Deque_base_types<Json::Reader::ErrorInfo,std::allocator<Json::Reader::ErrorInfo> > >::~_Deque_alloc<std::_Deque_base_types<Json::Reader::ErrorInfo,std::allocator<Json::Reader::ErrorInfo> > >
PUBLIC	?_Orphan_all@?$_Deque_alloc@U?$_Deque_base_types@VErrorInfo@Reader@Json@@V?$allocator@VErrorInfo@Reader@Json@@@std@@@std@@@std@@QEAAXXZ ; std::_Deque_alloc<std::_Deque_base_types<Json::Reader::ErrorInfo,std::allocator<Json::Reader::ErrorInfo> > >::_Orphan_all
PUBLIC	?_Getal@?$_Deque_alloc@U?$_Deque_base_types@VErrorInfo@Reader@Json@@V?$allocator@VErrorInfo@Reader@Json@@@std@@@std@@@std@@QEAAAEAU?$_Wrap_alloc@V?$allocator@VErrorInfo@Reader@Json@@@std@@@2@XZ ; std::_Deque_alloc<std::_Deque_base_types<Json::Reader::ErrorInfo,std::allocator<Json::Reader::ErrorInfo> > >::_Getal
PUBLIC	?_Get_data@?$_Deque_alloc@U?$_Deque_base_types@VErrorInfo@Reader@Json@@V?$allocator@VErrorInfo@Reader@Json@@@std@@@std@@@std@@QEBAAEBV?$_Deque_val@U?$_Deque_simple_types@VErrorInfo@Reader@Json@@@std@@@2@XZ ; std::_Deque_alloc<std::_Deque_base_types<Json::Reader::ErrorInfo,std::allocator<Json::Reader::ErrorInfo> > >::_Get_data
PUBLIC	?_Map@?$_Deque_alloc@U?$_Deque_base_types@VErrorInfo@Reader@Json@@V?$allocator@VErrorInfo@Reader@Json@@@std@@@std@@@std@@QEAAAEAPEAPEAVErrorInfo@Reader@Json@@XZ ; std::_Deque_alloc<std::_Deque_base_types<Json::Reader::ErrorInfo,std::allocator<Json::Reader::ErrorInfo> > >::_Map
PUBLIC	?_Mapsize@?$_Deque_alloc@U?$_Deque_base_types@VErrorInfo@Reader@Json@@V?$allocator@VErrorInfo@Reader@Json@@@std@@@std@@@std@@QEAAAEA_KXZ ; std::_Deque_alloc<std::_Deque_base_types<Json::Reader::ErrorInfo,std::allocator<Json::Reader::ErrorInfo> > >::_Mapsize
PUBLIC	?_Myoff@?$_Deque_alloc@U?$_Deque_base_types@VErrorInfo@Reader@Json@@V?$allocator@VErrorInfo@Reader@Json@@@std@@@std@@@std@@QEAAAEA_KXZ ; std::_Deque_alloc<std::_Deque_base_types<Json::Reader::ErrorInfo,std::allocator<Json::Reader::ErrorInfo> > >::_Myoff
PUBLIC	?_Mysize@?$_Deque_alloc@U?$_Deque_base_types@VErrorInfo@Reader@Json@@V?$allocator@VErrorInfo@Reader@Json@@@std@@@std@@@std@@QEAAAEA_KXZ ; std::_Deque_alloc<std::_Deque_base_types<Json::Reader::ErrorInfo,std::allocator<Json::Reader::ErrorInfo> > >::_Mysize
PUBLIC	?_Mysize@?$_Deque_alloc@U?$_Deque_base_types@VErrorInfo@Reader@Json@@V?$allocator@VErrorInfo@Reader@Json@@@std@@@std@@@std@@QEBAAEB_KXZ ; std::_Deque_alloc<std::_Deque_base_types<Json::Reader::ErrorInfo,std::allocator<Json::Reader::ErrorInfo> > >::_Mysize
PUBLIC	?allocate@?$_Wrap_alloc@V?$allocator@VErrorInfo@Reader@Json@@@std@@@std@@QEAAPEAVErrorInfo@Reader@Json@@_K@Z ; std::_Wrap_alloc<std::allocator<Json::Reader::ErrorInfo> >::allocate
PUBLIC	?_Getblock@?$_Deque_val@U?$_Deque_simple_types@VErrorInfo@Reader@Json@@@std@@@std@@QEBA_K_K@Z ; std::_Deque_val<std::_Deque_simple_types<Json::Reader::ErrorInfo> >::_Getblock
PUBLIC	??4?$basic_string@DU?$char_traits@D@std@@V?$allocator@D@2@@std@@QEAAAEAV01@AEBV01@@Z ; std::basic_string<char,std::char_traits<char>,std::allocator<char> >::operator=
PUBLIC	??4?$basic_string@DU?$char_traits@D@std@@V?$allocator@D@2@@std@@QEAAAEAV01@PEBD@Z ; std::basic_string<char,std::char_traits<char>,std::allocator<char> >::operator=
PUBLIC	??Y?$basic_string@DU?$char_traits@D@std@@V?$allocator@D@2@@std@@QEAAAEAV01@AEBV01@@Z ; std::basic_string<char,std::char_traits<char>,std::allocator<char> >::operator+=
PUBLIC	??Y?$basic_string@DU?$char_traits@D@std@@V?$allocator@D@2@@std@@QEAAAEAV01@PEBD@Z ; std::basic_string<char,std::char_traits<char>,std::allocator<char> >::operator+=
PUBLIC	??Y?$basic_string@DU?$char_traits@D@std@@V?$allocator@D@2@@std@@QEAAAEAV01@D@Z ; std::basic_string<char,std::char_traits<char>,std::allocator<char> >::operator+=
PUBLIC	?append@?$basic_string@DU?$char_traits@D@std@@V?$allocator@D@2@@std@@QEAAAEAV12@AEBV12@@Z ; std::basic_string<char,std::char_traits<char>,std::allocator<char> >::append
PUBLIC	?append@?$basic_string@DU?$char_traits@D@std@@V?$allocator@D@2@@std@@QEAAAEAV12@PEBD@Z ; std::basic_string<char,std::char_traits<char>,std::allocator<char> >::append
PUBLIC	??A?$basic_string@DU?$char_traits@D@std@@V?$allocator@D@2@@std@@QEAAAEAD_K@Z ; std::basic_string<char,std::char_traits<char>,std::allocator<char> >::operator[]
PUBLIC	?resize@?$basic_string@DU?$char_traits@D@std@@V?$allocator@D@2@@std@@QEAAX_K@Z ; std::basic_string<char,std::char_traits<char>,std::allocator<char> >::resize
PUBLIC	?reserve@?$basic_string@DU?$char_traits@D@std@@V?$allocator@D@2@@std@@QEAAX_K@Z ; std::basic_string<char,std::char_traits<char>,std::allocator<char> >::reserve
PUBLIC	?empty@?$basic_string@DU?$char_traits@D@std@@V?$allocator@D@2@@std@@QEBA_NXZ ; std::basic_string<char,std::char_traits<char>,std::allocator<char> >::empty
PUBLIC	??0?$_Yarn@D@std@@QEAA@XZ			; std::_Yarn<char>::_Yarn<char>
PUBLIC	??1?$_Yarn@D@std@@QEAA@XZ			; std::_Yarn<char>::~_Yarn<char>
PUBLIC	?c_str@?$_Yarn@D@std@@QEBAPEBDXZ		; std::_Yarn<char>::c_str
PUBLIC	??0?$_Yarn@_W@std@@QEAA@XZ			; std::_Yarn<wchar_t>::_Yarn<wchar_t>
PUBLIC	??1?$_Yarn@_W@std@@QEAA@XZ			; std::_Yarn<wchar_t>::~_Yarn<wchar_t>
PUBLIC	??0?$deque@VErrorInfo@Reader@Json@@V?$allocator@VErrorInfo@Reader@Json@@@std@@@std@@QEAA@XZ ; std::deque<Json::Reader::ErrorInfo,std::allocator<Json::Reader::ErrorInfo> >::deque<Json::Reader::ErrorInfo,std::allocator<Json::Reader::ErrorInfo> >
PUBLIC	??1?$deque@VErrorInfo@Reader@Json@@V?$allocator@VErrorInfo@Reader@Json@@@std@@@std@@QEAA@XZ ; std::deque<Json::Reader::ErrorInfo,std::allocator<Json::Reader::ErrorInfo> >::~deque<Json::Reader::ErrorInfo,std::allocator<Json::Reader::ErrorInfo> >
PUBLIC	?resize@?$deque@VErrorInfo@Reader@Json@@V?$allocator@VErrorInfo@Reader@Json@@@std@@@std@@QEAAX_K@Z ; std::deque<Json::Reader::ErrorInfo,std::allocator<Json::Reader::ErrorInfo> >::resize
PUBLIC	?size@?$deque@VErrorInfo@Reader@Json@@V?$allocator@VErrorInfo@Reader@Json@@@std@@@std@@QEBA_KXZ ; std::deque<Json::Reader::ErrorInfo,std::allocator<Json::Reader::ErrorInfo> >::size
PUBLIC	?push_back@?$deque@VErrorInfo@Reader@Json@@V?$allocator@VErrorInfo@Reader@Json@@@std@@@std@@QEAAXAEBVErrorInfo@Reader@Json@@@Z ; std::deque<Json::Reader::ErrorInfo,std::allocator<Json::Reader::ErrorInfo> >::push_back
PUBLIC	?clear@?$deque@VErrorInfo@Reader@Json@@V?$allocator@VErrorInfo@Reader@Json@@@std@@@std@@QEAAXXZ ; std::deque<Json::Reader::ErrorInfo,std::allocator<Json::Reader::ErrorInfo> >::clear
PUBLIC	??1?$deque@PEAVValue@Json@@V?$allocator@PEAVValue@Json@@@std@@@std@@QEAA@XZ ; std::deque<Json::Value *,std::allocator<Json::Value *> >::~deque<Json::Value *,std::allocator<Json::Value *> >
PUBLIC	??0?$stack@PEAVValue@Json@@V?$deque@PEAVValue@Json@@V?$allocator@PEAVValue@Json@@@std@@@std@@@std@@QEAA@XZ ; std::stack<Json::Value *,std::deque<Json::Value *,std::allocator<Json::Value *> > >::stack<Json::Value *,std::deque<Json::Value *,std::allocator<Json::Value *> > >
PUBLIC	?push@?$stack@PEAVValue@Json@@V?$deque@PEAVValue@Json@@V?$allocator@PEAVValue@Json@@@std@@@std@@@std@@QEAAX$$QEAPEAVValue@Json@@@Z ; std::stack<Json::Value *,std::deque<Json::Value *,std::allocator<Json::Value *> > >::push
PUBLIC	?empty@?$stack@PEAVValue@Json@@V?$deque@PEAVValue@Json@@V?$allocator@PEAVValue@Json@@@std@@@std@@@std@@QEBA_NXZ ; std::stack<Json::Value *,std::deque<Json::Value *,std::allocator<Json::Value *> > >::empty
PUBLIC	?top@?$stack@PEAVValue@Json@@V?$deque@PEAVValue@Json@@V?$allocator@PEAVValue@Json@@@std@@@std@@@std@@QEAAAEAPEAVValue@Json@@XZ ; std::stack<Json::Value *,std::deque<Json::Value *,std::allocator<Json::Value *> > >::top
PUBLIC	?pop@?$stack@PEAVValue@Json@@V?$deque@PEAVValue@Json@@V?$allocator@PEAVValue@Json@@@std@@@std@@@std@@QEAAXXZ ; std::stack<Json::Value *,std::deque<Json::Value *,std::allocator<Json::Value *> > >::pop
PUBLIC	??1Reader@Json@@QEAA@XZ				; Json::Reader::~Reader
PUBLIC	?getNextChar@Reader@Json@@AEAADXZ		; Json::Reader::getNextChar
PUBLIC	?currentValue@Reader@Json@@AEAAAEAVValue@2@XZ	; Json::Reader::currentValue
PUBLIC	?addErrorAndRecover@Reader@Json@@AEAA_NAEBV?$basic_string@DU?$char_traits@D@std@@V?$allocator@D@2@@std@@AEAVToken@12@W4TokenType@12@@Z ; Json::Reader::addErrorAndRecover
PUBLIC	?recoverFromError@Reader@Json@@AEAA_NW4TokenType@12@@Z ; Json::Reader::recoverFromError
PUBLIC	??1ErrorInfo@Reader@Json@@QEAA@XZ		; Json::Reader::ErrorInfo::~ErrorInfo
PUBLIC	??0ErrorInfo@Reader@Json@@QEAA@XZ		; Json::Reader::ErrorInfo::ErrorInfo
PUBLIC	?addError@Reader@Json@@AEAA_NAEBV?$basic_string@DU?$char_traits@D@std@@V?$allocator@D@2@@std@@AEAVToken@12@PEBD@Z ; Json::Reader::addError
PUBLIC	?decodeUnicodeEscapeSequence@Reader@Json@@AEAA_NAEAVToken@12@AEAPEBDPEBDAEAI@Z ; Json::Reader::decodeUnicodeEscapeSequence
PUBLIC	?decodeUnicodeCodePoint@Reader@Json@@AEAA_NAEAVToken@12@AEAPEBDPEBDAEAI@Z ; Json::Reader::decodeUnicodeCodePoint
PUBLIC	?decodeString@Reader@Json@@AEAA_NAEAVToken@12@AEAV?$basic_string@DU?$char_traits@D@std@@V?$allocator@D@2@@std@@@Z ; Json::Reader::decodeString
PUBLIC	?decodeString@Reader@Json@@AEAA_NAEAVToken@12@@Z ; Json::Reader::decodeString
PUBLIC	?decodeDouble@Reader@Json@@AEAA_NAEAVToken@12@@Z ; Json::Reader::decodeDouble
PUBLIC	?decodeNumber@Reader@Json@@AEAA_NAEAVToken@12@@Z ; Json::Reader::decodeNumber
PUBLIC	?readArray@Reader@Json@@AEAA_NAEAVToken@12@@Z	; Json::Reader::readArray
PUBLIC	?readObject@Reader@Json@@AEAA_NAEAVToken@12@@Z	; Json::Reader::readObject
PUBLIC	?readString@Reader@Json@@AEAA_NXZ		; Json::Reader::readString
PUBLIC	?readNumber@Reader@Json@@AEAAXXZ		; Json::Reader::readNumber
PUBLIC	?readCppStyleComment@Reader@Json@@AEAA_NXZ	; Json::Reader::readCppStyleComment
PUBLIC	?readCStyleComment@Reader@Json@@AEAA_NXZ	; Json::Reader::readCStyleComment
PUBLIC	?addComment@Reader@Json@@AEAAXPEBD0W4CommentPlacement@2@@Z ; Json::Reader::addComment
PUBLIC	?readComment@Reader@Json@@AEAA_NXZ		; Json::Reader::readComment
PUBLIC	?match@Reader@Json@@AEAA_NPEBDH@Z		; Json::Reader::match
PUBLIC	?skipSpaces@Reader@Json@@AEAAXXZ		; Json::Reader::skipSpaces
PUBLIC	?readToken@Reader@Json@@AEAA_NAEAVToken@12@@Z	; Json::Reader::readToken
PUBLIC	?skipCommentTokens@Reader@Json@@AEAAXAEAVToken@12@@Z ; Json::Reader::skipCommentTokens
PUBLIC	?readValue@Reader@Json@@AEAA_NXZ		; Json::Reader::readValue
PUBLIC	?parse@Reader@Json@@QEAA_NPEBD0AEAVValue@2@_N@Z	; Json::Reader::parse
PUBLIC	?parse@Reader@Json@@QEAA_NAEBV?$basic_string@DU?$char_traits@D@std@@V?$allocator@D@2@@std@@AEAVValue@2@_N@Z ; Json::Reader::parse
PUBLIC	??1?$stack@PEAVValue@Json@@V?$deque@PEAVValue@Json@@V?$allocator@PEAVValue@Json@@@std@@@std@@@std@@QEAA@XZ ; std::stack<Json::Value *,std::deque<Json::Value *,std::allocator<Json::Value *> > >::~stack<Json::Value *,std::deque<Json::Value *,std::allocator<Json::Value *> > >
PUBLIC	??0Reader@Json@@QEAA@XZ				; Json::Reader::Reader
PUBLIC	?all@Features@Json@@SA?AV12@XZ			; Json::Features::all
PUBLIC	??0Features@Json@@QEAA@XZ			; Json::Features::Features
PUBLIC	??0_System_error@std@@QEAA@AEBV01@@Z		; std::_System_error::_System_error
PUBLIC	??0system_error@std@@QEAA@AEBV01@@Z		; std::system_error::system_error
PUBLIC	??0failure@ios_base@std@@QEAA@AEBV012@@Z	; std::ios_base::failure::failure
PUBLIC	??1failure@ios_base@std@@UEAA@XZ		; std::ios_base::failure::~failure
PUBLIC	??_Gfailure@ios_base@std@@UEAAPEAXI@Z		; std::ios_base::failure::`scalar deleting destructor'
PUBLIC	?getloc@ios_base@std@@QEBA?AVlocale@2@XZ	; std::ios_base::getloc
PUBLIC	?flags@ios_base@std@@QEBAHXZ			; std::ios_base::flags
PUBLIC	?good@ios_base@std@@QEBA_NXZ			; std::ios_base::good
PUBLIC	?rdstate@ios_base@std@@QEBAHXZ			; std::ios_base::rdstate
PUBLIC	?clear@ios_base@std@@QEAAXH_N@Z			; std::ios_base::clear
PUBLIC	??0failure@ios_base@std@@QEAA@PEBDAEBVerror_code@2@@Z ; std::ios_base::failure::failure
PUBLIC	?iostream_category@std@@YAAEBVerror_category@1@XZ ; std::iostream_category
PUBLIC	??1_Iostream_error_category@std@@UEAA@XZ	; std::_Iostream_error_category::~_Iostream_error_category
PUBLIC	??_G_Iostream_error_category@std@@UEAAPEAXI@Z	; std::_Iostream_error_category::`scalar deleting destructor'
PUBLIC	?message@_Iostream_error_category@std@@UEBA?AV?$basic_string@DU?$char_traits@D@std@@V?$allocator@D@2@@2@H@Z ; std::_Iostream_error_category::message
PUBLIC	?name@_Iostream_error_category@std@@UEBAPEBDXZ	; std::_Iostream_error_category::name
PUBLIC	??0_Iostream_error_category@std@@QEAA@XZ	; std::_Iostream_error_category::_Iostream_error_category
PUBLIC	??1_Generic_error_category@std@@UEAA@XZ		; std::_Generic_error_category::~_Generic_error_category
PUBLIC	??_G_Generic_error_category@std@@UEAAPEAXI@Z	; std::_Generic_error_category::`scalar deleting destructor'
PUBLIC	?message@_Generic_error_category@std@@UEBA?AV?$basic_string@DU?$char_traits@D@std@@V?$allocator@D@2@@2@H@Z ; std::_Generic_error_category::message
PUBLIC	?name@_Generic_error_category@std@@UEBAPEBDXZ	; std::_Generic_error_category::name
PUBLIC	??0_Generic_error_category@std@@QEAA@XZ		; std::_Generic_error_category::_Generic_error_category
PUBLIC	??1system_error@std@@UEAA@XZ			; std::system_error::~system_error
PUBLIC	??_Gsystem_error@std@@UEAAPEAXI@Z		; std::system_error::`scalar deleting destructor'
PUBLIC	??0system_error@std@@QEAA@Verror_code@1@PEBD@Z	; std::system_error::system_error
PUBLIC	??1_System_error@std@@UEAA@XZ			; std::_System_error::~_System_error
PUBLIC	??_G_System_error@std@@UEAAPEAXI@Z		; std::_System_error::`scalar deleting destructor'
PUBLIC	??0_System_error@std@@IEAA@Verror_code@1@AEBV?$basic_string@DU?$char_traits@D@std@@V?$allocator@D@2@@1@@Z ; std::_System_error::_System_error
PUBLIC	?_Makestr@_System_error@std@@CA?AV?$basic_string@DU?$char_traits@D@std@@V?$allocator@D@2@@2@Verror_code@2@V32@@Z ; std::_System_error::_Makestr
PUBLIC	?make_error_code@std@@YA?AVerror_code@1@W4io_errc@1@@Z ; std::make_error_code
PUBLIC	?equivalent@error_category@std@@UEBA_NAEBVerror_code@2@H@Z ; std::error_category::equivalent
PUBLIC	?equivalent@error_category@std@@UEBA_NHAEBVerror_condition@2@@Z ; std::error_category::equivalent
PUBLIC	?default_error_condition@error_category@std@@UEBA?AVerror_condition@2@H@Z ; std::error_category::default_error_condition
PUBLIC	??8std@@YA_NAEBVerror_condition@0@0@Z		; std::operator==
PUBLIC	?category@error_condition@std@@QEBAAEBVerror_category@2@XZ ; std::error_condition::category
PUBLIC	?value@error_condition@std@@QEBAHXZ		; std::error_condition::value
PUBLIC	??0error_condition@std@@QEAA@HAEBVerror_category@1@@Z ; std::error_condition::error_condition
PUBLIC	?message@error_code@std@@QEBA?AV?$basic_string@DU?$char_traits@D@std@@V?$allocator@D@2@@2@XZ ; std::error_code::message
PUBLIC	?category@error_code@std@@QEBAAEBVerror_category@2@XZ ; std::error_code::category
PUBLIC	?value@error_code@std@@QEBAHXZ			; std::error_code::value
PUBLIC	??0error_code@std@@QEAA@HAEBVerror_category@1@@Z ; std::error_code::error_code
PUBLIC	??_Gerror_category@std@@UEAAPEAXI@Z		; std::error_category::`scalar deleting destructor'
PUBLIC	??8error_category@std@@QEBA_NAEBV01@@Z		; std::error_category::operator==
PUBLIC	??1error_category@std@@UEAA@XZ			; std::error_category::~error_category
PUBLIC	??0error_category@std@@QEAA@XZ			; std::error_category::error_category
PUBLIC	??_G?$ctype@D@std@@MEAAPEAXI@Z			; std::ctype<char>::`scalar deleting destructor'
PUBLIC	?do_narrow@?$ctype@D@std@@MEBAPEBDPEBD0DPEAD@Z	; std::ctype<char>::do_narrow
PUBLIC	?do_narrow@?$ctype@D@std@@MEBADDD@Z		; std::ctype<char>::do_narrow
PUBLIC	?do_widen@?$ctype@D@std@@MEBAPEBDPEBD0PEAD@Z	; std::ctype<char>::do_widen
PUBLIC	?do_widen@?$ctype@D@std@@MEBADD@Z		; std::ctype<char>::do_widen
PUBLIC	?do_toupper@?$ctype@D@std@@MEBAPEBDPEADPEBD@Z	; std::ctype<char>::do_toupper
PUBLIC	?do_toupper@?$ctype@D@std@@MEBADD@Z		; std::ctype<char>::do_toupper
PUBLIC	?do_tolower@?$ctype@D@std@@MEBAPEBDPEADPEBD@Z	; std::ctype<char>::do_tolower
PUBLIC	?do_tolower@?$ctype@D@std@@MEBADD@Z		; std::ctype<char>::do_tolower
PUBLIC	?_Tidy@?$ctype@D@std@@IEAAXXZ			; std::ctype<char>::_Tidy
PUBLIC	?_Init@?$ctype@D@std@@IEAAXAEBV_Locinfo@2@@Z	; std::ctype<char>::_Init
PUBLIC	??1?$ctype@D@std@@MEAA@XZ			; std::ctype<char>::~ctype<char>
PUBLIC	?_Getcat@?$ctype@D@std@@SA_KPEAPEBVfacet@locale@2@PEBV42@@Z ; std::ctype<char>::_Getcat
PUBLIC	??0?$ctype@D@std@@QEAA@AEBV_Locinfo@1@_K@Z	; std::ctype<char>::ctype<char>
PUBLIC	?is@?$ctype@D@std@@QEBA_NFD@Z			; std::ctype<char>::is
PUBLIC	??_Gctype_base@std@@UEAAPEAXI@Z			; std::ctype_base::`scalar deleting destructor'
PUBLIC	??1ctype_base@std@@UEAA@XZ			; std::ctype_base::~ctype_base
PUBLIC	??0ctype_base@std@@QEAA@_K@Z			; std::ctype_base::ctype_base
PUBLIC	??0_Facet_base@std@@QEAA@XZ			; std::_Facet_base::_Facet_base
PUBLIC	??_Gfacet@locale@std@@MEAAPEAXI@Z		; std::locale::facet::`scalar deleting destructor'
PUBLIC	?_Getfacet@locale@std@@QEBAPEBVfacet@12@_K@Z	; std::locale::_Getfacet
PUBLIC	?c_str@locale@std@@QEBAPEBDXZ			; std::locale::c_str
PUBLIC	??1locale@std@@QEAA@XZ				; std::locale::~locale
PUBLIC	??0locale@std@@QEAA@AEBV01@@Z			; std::locale::locale
PUBLIC	??1facet@locale@std@@MEAA@XZ			; std::locale::facet::~facet
PUBLIC	??0facet@locale@std@@IEAA@_K@Z			; std::locale::facet::facet
PUBLIC	?_Decref@facet@locale@std@@UEAAPEAV_Facet_base@3@XZ ; std::locale::facet::_Decref
PUBLIC	?_Incref@facet@locale@std@@UEAAXXZ		; std::locale::facet::_Incref
PUBLIC	??Bid@locale@std@@QEAA_KXZ			; std::locale::id::operator unsigned __int64
PUBLIC	??_G_Facet_base@std@@UEAAPEAXI@Z		; std::_Facet_base::`scalar deleting destructor'
PUBLIC	??1_Facet_base@std@@UEAA@XZ			; std::_Facet_base::~_Facet_base
PUBLIC	?_Getctype@_Locinfo@std@@QEBA?AU_Ctypevec@@XZ	; std::_Locinfo::_Getctype
PUBLIC	??1_Locinfo@std@@QEAA@XZ			; std::_Locinfo::~_Locinfo
PUBLIC	??0_Locinfo@std@@QEAA@PEBD@Z			; std::_Locinfo::_Locinfo
PUBLIC	??1bad_cast@std@@UEAA@XZ			; std::bad_cast::~bad_cast
PUBLIC	??_Gbad_cast@std@@UEAAPEAXI@Z			; std::bad_cast::`scalar deleting destructor'
PUBLIC	??0bad_cast@std@@QEAA@XZ			; std::bad_cast::bad_cast
PUBLIC	??0runtime_error@std@@QEAA@AEBV?$basic_string@DU?$char_traits@D@std@@V?$allocator@D@2@@1@@Z ; std::runtime_error::runtime_error
PUBLIC	?_Init_atomic_counter@std@@YAXAEAKK@Z		; std::_Init_atomic_counter
PUBLIC	?_Orphan_all@_Container_base12@std@@QEAAXXZ	; std::_Container_base12::_Orphan_all
PUBLIC	?_Getcont@_Iterator_base12@std@@QEBAPEBU_Container_base12@2@XZ ; std::_Iterator_base12::_Getcont
PUBLIC	?_Adopt@_Iterator_base12@std@@QEAAXPEBU_Container_base12@2@@Z ; std::_Iterator_base12::_Adopt
PUBLIC	??1_Iterator_base12@std@@QEAA@XZ		; std::_Iterator_base12::~_Iterator_base12
PUBLIC	??4_Iterator_base12@std@@QEAAAEAU01@AEBU01@@Z	; std::_Iterator_base12::operator=
PUBLIC	??0_Iterator_base12@std@@QEAA@AEBU01@@Z		; std::_Iterator_base12::_Iterator_base12
PUBLIC	??0_Iterator_base12@std@@QEAA@XZ		; std::_Iterator_base12::_Iterator_base12
PUBLIC	??1_Container_base12@std@@QEAA@XZ		; std::_Container_base12::~_Container_base12
PUBLIC	??0_Container_base12@std@@QEAA@XZ		; std::_Container_base12::_Container_base12
PUBLIC	??0_Container_proxy@std@@QEAA@XZ		; std::_Container_proxy::_Container_proxy
PUBLIC	?eof@?$char_traits@D@std@@SAHXZ			; std::char_traits<char>::eof
PUBLIC	?eq_int_type@?$char_traits@D@std@@SA_NAEBH0@Z	; std::char_traits<char>::eq_int_type
PUBLIC	?to_int_type@?$char_traits@D@std@@SAHAEBD@Z	; std::char_traits<char>::to_int_type
PUBLIC	?to_char_type@?$char_traits@D@std@@SADAEBH@Z	; std::char_traits<char>::to_char_type
PUBLIC	?assign@?$char_traits@D@std@@SAPEADPEAD_KD@Z	; std::char_traits<char>::assign
PUBLIC	??0exception@std@@QEAA@QEBDH@Z			; std::exception::exception
PUBLIC	sscanf
PUBLIC	_vsscanf_l
PUBLIC	sprintf
PUBLIC	_vsprintf_l
PUBLIC	_vsnprintf_l
PUBLIC	__local_stdio_scanf_options
PUBLIC	__local_stdio_printf_options
EXTRN	??_Ebad_cast@std@@UEAAPEAXI@Z:PROC		; std::bad_cast::`vector deleting destructor'
EXTRN	??_Efacet@locale@std@@MEAAPEAXI@Z:PROC		; std::locale::facet::`vector deleting destructor'
EXTRN	??_E_System_error@std@@UEAAPEAXI@Z:PROC		; std::_System_error::`vector deleting destructor'
EXTRN	??_Efailure@ios_base@std@@UEAAPEAXI@Z:PROC	; std::ios_base::failure::`vector deleting destructor'
EXTRN	??_E?$ctype@D@std@@MEAAPEAXI@Z:PROC		; std::ctype<char>::`vector deleting destructor'
EXTRN	??_E_Iostream_error_category@std@@UEAAPEAXI@Z:PROC ; std::_Iostream_error_category::`vector deleting destructor'
EXTRN	??_Esystem_error@std@@UEAAPEAXI@Z:PROC		; std::system_error::`vector deleting destructor'
EXTRN	??_Ectype_base@std@@UEAAPEAXI@Z:PROC		; std::ctype_base::`vector deleting destructor'
EXTRN	??_Eerror_category@std@@UEAAPEAXI@Z:PROC	; std::error_category::`vector deleting destructor'
EXTRN	??_E_Facet_base@std@@UEAAPEAXI@Z:PROC		; std::_Facet_base::`vector deleting destructor'
EXTRN	??_E_Generic_error_category@std@@UEAAPEAXI@Z:PROC ; std::_Generic_error_category::`vector deleting destructor'
;	COMDAT pdata
pdata	SEGMENT
$pdata$??$_Copy_memmove@PEAPEAPEAVValue@Json@@PEAPEAPEAV12@@std@@YAPEAPEAPEAVValue@Json@@PEAPEAPEAV12@00@Z DD imagerel $LN4@Copy_memmo
	DD	imagerel $LN4@Copy_memmo+48
	DD	imagerel $unwind$??$_Copy_memmove@PEAPEAPEAVValue@Json@@PEAPEAPEAV12@@std@@YAPEAPEAPEAVValue@Json@@PEAPEAPEAV12@00@Z
pdata	ENDS
;	COMDAT pdata
pdata	SEGMENT
$pdata$??$_Copy_memmove@PEAPEAVErrorInfo@Reader@Json@@PEAPEAV123@@std@@YAPEAPEAVErrorInfo@Reader@Json@@PEAPEAV123@00@Z DD imagerel $LN4@Copy_memmo
	DD	imagerel $LN4@Copy_memmo+48
	DD	imagerel $unwind$??$_Copy_memmove@PEAPEAVErrorInfo@Reader@Json@@PEAPEAV123@@std@@YAPEAPEAVErrorInfo@Reader@Json@@PEAPEAV123@00@Z
pdata	ENDS
;	COMDAT pdata
pdata	SEGMENT
$pdata$??_GErrorInfo@Reader@Json@@QEAAPEAXI@Z DD imagerel $LN9@scalar
	DD	imagerel $LN9@scalar+27
	DD	imagerel $unwind$??_GErrorInfo@Reader@Json@@QEAAPEAXI@Z
pdata	ENDS
;	COMDAT pdata
pdata	SEGMENT
$pdata$??0ErrorInfo@Reader@Json@@QEAA@AEBV012@@Z DD imagerel $LN135@ErrorInfo
	DD	imagerel $LN135@ErrorInfo+96
	DD	imagerel $unwind$??0ErrorInfo@Reader@Json@@QEAA@AEBV012@@Z
pdata	ENDS
;	COMDAT pdata
pdata	SEGMENT
$pdata$??$_Uninitialized_copy_al_unchecked1@PEAPEAVValue@Json@@PEAPEAV12@V?$allocator@PEAPEAVValue@Json@@@std@@@std@@YAPEAPEAPEAVValue@Json@@PEAPEAPEAV12@00AEAU?$_Wrap_alloc@V?$allocator@PEAPEAVValue@Json@@@std@@@0@U_Really_trivial_ptr_iterator_tag@0@U?$integral_constant@_N$00@0@@Z DD imagerel $LN6@Uninitiali
	DD	imagerel $LN6@Uninitiali+48
	DD	imagerel $unwind$??$_Uninitialized_copy_al_unchecked1@PEAPEAVValue@Json@@PEAPEAV12@V?$allocator@PEAPEAVValue@Json@@@std@@@std@@YAPEAPEAPEAVValue@Json@@PEAPEAPEAV12@00AEAU?$_Wrap_alloc@V?$allocator@PEAPEAVValue@Json@@@std@@@0@U_Really_trivial_ptr_iterator_tag@0@U?$integral_constant@_N$00@0@@Z
pdata	ENDS
;	COMDAT pdata
pdata	SEGMENT
$pdata$??$_Uninitialized_copy_al_unchecked1@PEAVErrorInfo@Reader@Json@@PEAV123@V?$allocator@PEAVErrorInfo@Reader@Json@@@std@@@std@@YAPEAPEAVErrorInfo@Reader@Json@@PEAPEAV123@00AEAU?$_Wrap_alloc@V?$allocator@PEAVErrorInfo@Reader@Json@@@std@@@0@U_Really_trivial_ptr_iterator_tag@0@U?$integral_constant@_N$00@0@@Z DD imagerel $LN6@Uninitiali
	DD	imagerel $LN6@Uninitiali+48
	DD	imagerel $unwind$??$_Uninitialized_copy_al_unchecked1@PEAVErrorInfo@Reader@Json@@PEAV123@V?$allocator@PEAVErrorInfo@Reader@Json@@@std@@@std@@YAPEAPEAVErrorInfo@Reader@Json@@PEAPEAV123@00AEAU?$_Wrap_alloc@V?$allocator@PEAVErrorInfo@Reader@Json@@@std@@@0@U_Really_trivial_ptr_iterator_tag@0@U?$integral_constant@_N$00@0@@Z
pdata	ENDS
;	COMDAT pdata
pdata	SEGMENT
$pdata$??$construct@VErrorInfo@Reader@Json@@AEBV123@@?$allocator@VErrorInfo@Reader@Json@@@std@@QEAAXPEAVErrorInfo@Reader@Json@@AEBV234@@Z DD imagerel $LN146@construct
	DD	imagerel $LN146@construct+124
	DD	imagerel $unwind$??$construct@VErrorInfo@Reader@Json@@AEBV123@@?$allocator@VErrorInfo@Reader@Json@@@std@@QEAAXPEAVErrorInfo@Reader@Json@@AEBV234@@Z
pdata	ENDS
;	COMDAT pdata
pdata	SEGMENT
$pdata$?dtor$0@?0???$construct@VErrorInfo@Reader@Json@@AEBV123@@?$allocator@VErrorInfo@Reader@Json@@@std@@QEAAXPEAVErrorInfo@Reader@Json@@AEBV234@@Z@4HA DD imagerel ?dtor$0@?0???$construct@VErrorInfo@Reader@Json@@AEBV123@@?$allocator@VErrorInfo@Reader@Json@@@std@@QEAAXPEAVErrorInfo@Reader@Json@@AEBV234@@Z@4HA
	DD	imagerel ?dtor$0@?0???$construct@VErrorInfo@Reader@Json@@AEBV123@@?$allocator@VErrorInfo@Reader@Json@@@std@@QEAAXPEAVErrorInfo@Reader@Json@@AEBV234@@Z@4HA+28
	DD	imagerel $unwind$?dtor$0@?0???$construct@VErrorInfo@Reader@Json@@AEBV123@@?$allocator@VErrorInfo@Reader@Json@@@std@@QEAAXPEAVErrorInfo@Reader@Json@@AEBV234@@Z@4HA
pdata	ENDS
;	COMDAT pdata
pdata	SEGMENT
$pdata$?_Osfx@?$basic_ostream@DU?$char_traits@D@std@@@std@@QEAAXXZ DD imagerel $LN31@Osfx
	DD	imagerel $LN31@Osfx+86
	DD	imagerel $unwind$?_Osfx@?$basic_ostream@DU?$char_traits@D@std@@@std@@QEAAXXZ
pdata	ENDS
;	COMDAT pdata
pdata	SEGMENT
$pdata$?catch$0@?0??_Osfx@?$basic_ostream@DU?$char_traits@D@std@@@std@@QEAAXXZ@4HA DD imagerel ?catch$0@?0??_Osfx@?$basic_ostream@DU?$char_traits@D@std@@@std@@QEAAXXZ@4HA
	DD	imagerel ?catch$0@?0??_Osfx@?$basic_ostream@DU?$char_traits@D@std@@@std@@QEAAXXZ@4HA+27
	DD	imagerel $unwind$?catch$0@?0??_Osfx@?$basic_ostream@DU?$char_traits@D@std@@@std@@QEAAXXZ@4HA
pdata	ENDS
;	COMDAT pdata
pdata	SEGMENT
$pdata$??0_Sentry_base@?$basic_ostream@DU?$char_traits@D@std@@@std@@QEAA@AEAV12@@Z DD imagerel $LN10@Sentry_bas
	DD	imagerel $LN10@Sentry_bas+44
	DD	imagerel $unwind$??0_Sentry_base@?$basic_ostream@DU?$char_traits@D@std@@@std@@QEAA@AEAV12@@Z
pdata	ENDS
;	COMDAT pdata
pdata	SEGMENT
$pdata$??1_Sentry_base@?$basic_ostream@DU?$char_traits@D@std@@@std@@QEAA@XZ DD imagerel $LN10@Sentry_bas
	DD	imagerel $LN10@Sentry_bas+45
	DD	imagerel $unwind$??1_Sentry_base@?$basic_ostream@DU?$char_traits@D@std@@@std@@QEAA@XZ
pdata	ENDS
;	COMDAT pdata
pdata	SEGMENT
$pdata$??0sentry@?$basic_ostream@DU?$char_traits@D@std@@@std@@QEAA@AEAV12@@Z DD imagerel $LN28@sentry
	DD	imagerel $LN28@sentry+125
	DD	imagerel $unwind$??0sentry@?$basic_ostream@DU?$char_traits@D@std@@@std@@QEAA@AEAV12@@Z
pdata	ENDS
;	COMDAT pdata
pdata	SEGMENT
$pdata$??1sentry@?$basic_ostream@DU?$char_traits@D@std@@@std@@QEAA@XZ DD imagerel $LN15@sentry
	DD	imagerel $LN15@sentry+70
	DD	imagerel $unwind$??1sentry@?$basic_ostream@DU?$char_traits@D@std@@@std@@QEAA@XZ
pdata	ENDS
;	COMDAT pdata
pdata	SEGMENT
$pdata$?flush@?$basic_ostream@DU?$char_traits@D@std@@@std@@QEAAAEAV12@XZ DD imagerel $LN38@flush
	DD	imagerel $LN38@flush+160
	DD	imagerel $unwind$?flush@?$basic_ostream@DU?$char_traits@D@std@@@std@@QEAAAEAV12@XZ
pdata	ENDS
;	COMDAT pdata
pdata	SEGMENT
$pdata$?_Ipfx@?$basic_istream@DU?$char_traits@D@std@@@std@@QEAA_N_N@Z DD imagerel $LN140@Ipfx
	DD	imagerel $LN140@Ipfx+497
	DD	imagerel $unwind$?_Ipfx@?$basic_istream@DU?$char_traits@D@std@@@std@@QEAA_N_N@Z
pdata	ENDS
;	COMDAT pdata
pdata	SEGMENT
$pdata$?catch$2@?0??_Ipfx@?$basic_istream@DU?$char_traits@D@std@@@std@@QEAA_N_N@Z@4HA DD imagerel ?catch$2@?0??_Ipfx@?$basic_istream@DU?$char_traits@D@std@@@std@@QEAA_N_N@Z@4HA
	DD	imagerel ?catch$2@?0??_Ipfx@?$basic_istream@DU?$char_traits@D@std@@@std@@QEAA_N_N@Z@4HA+70
	DD	imagerel $unwind$?catch$2@?0??_Ipfx@?$basic_istream@DU?$char_traits@D@std@@@std@@QEAA_N_N@Z@4HA
pdata	ENDS
;	COMDAT pdata
pdata	SEGMENT
$pdata$??0_Sentry_base@?$basic_istream@DU?$char_traits@D@std@@@std@@QEAA@AEAV12@@Z DD imagerel $LN10@Sentry_bas
	DD	imagerel $LN10@Sentry_bas+44
	DD	imagerel $unwind$??0_Sentry_base@?$basic_istream@DU?$char_traits@D@std@@@std@@QEAA@AEAV12@@Z
pdata	ENDS
;	COMDAT pdata
pdata	SEGMENT
$pdata$?snextc@?$basic_streambuf@DU?$char_traits@D@std@@@std@@QEAAHXZ DD imagerel $LN48@snextc
	DD	imagerel $LN48@snextc+139
	DD	imagerel $unwind$?snextc@?$basic_streambuf@DU?$char_traits@D@std@@@std@@QEAAHXZ
pdata	ENDS
;	COMDAT pdata
pdata	SEGMENT
$pdata$??1_Sentry_base@?$basic_istream@DU?$char_traits@D@std@@@std@@QEAA@XZ DD imagerel $LN10@Sentry_bas
	DD	imagerel $LN10@Sentry_bas+45
	DD	imagerel $unwind$??1_Sentry_base@?$basic_istream@DU?$char_traits@D@std@@@std@@QEAA@XZ
pdata	ENDS
;	COMDAT pdata
pdata	SEGMENT
$pdata$??0sentry@?$basic_istream@DU?$char_traits@D@std@@@std@@QEAA@AEAV12@_N@Z DD imagerel $LN13@sentry
	DD	imagerel $LN13@sentry+71
	DD	imagerel $unwind$??0sentry@?$basic_istream@DU?$char_traits@D@std@@@std@@QEAA@AEAV12@_N@Z
pdata	ENDS
;	COMDAT pdata
pdata	SEGMENT
$pdata$??1sentry@?$basic_istream@DU?$char_traits@D@std@@@std@@QEAA@XZ DD imagerel $LN14@sentry
	DD	imagerel $LN14@sentry+45
	DD	imagerel $unwind$??1sentry@?$basic_istream@DU?$char_traits@D@std@@@std@@QEAA@XZ
pdata	ENDS
;	COMDAT pdata
pdata	SEGMENT
$pdata$??$_Uninitialized_copy_al_unchecked@PEAPEAPEAVValue@Json@@PEAPEAPEAV12@V?$allocator@PEAPEAVValue@Json@@@std@@@std@@YAPEAPEAPEAVValue@Json@@PEAPEAPEAV12@00AEAU?$_Wrap_alloc@V?$allocator@PEAPEAVValue@Json@@@std@@@0@@Z DD imagerel $LN10@Uninitiali
	DD	imagerel $LN10@Uninitiali+48
	DD	imagerel $unwind$??$_Uninitialized_copy_al_unchecked@PEAPEAPEAVValue@Json@@PEAPEAPEAV12@V?$allocator@PEAPEAVValue@Json@@@std@@@std@@YAPEAPEAPEAVValue@Json@@PEAPEAPEAV12@00AEAU?$_Wrap_alloc@V?$allocator@PEAPEAVValue@Json@@@std@@@0@@Z
pdata	ENDS
;	COMDAT pdata
pdata	SEGMENT
$pdata$??$_Uninitialized_copy_al_unchecked@PEAPEAVErrorInfo@Reader@Json@@PEAPEAV123@V?$allocator@PEAVErrorInfo@Reader@Json@@@std@@@std@@YAPEAPEAVErrorInfo@Reader@Json@@PEAPEAV123@00AEAU?$_Wrap_alloc@V?$allocator@PEAVErrorInfo@Reader@Json@@@std@@@0@@Z DD imagerel $LN10@Uninitiali
	DD	imagerel $LN10@Uninitiali+48
	DD	imagerel $unwind$??$_Uninitialized_copy_al_unchecked@PEAPEAVErrorInfo@Reader@Json@@PEAPEAV123@V?$allocator@PEAVErrorInfo@Reader@Json@@@std@@@std@@YAPEAPEAVErrorInfo@Reader@Json@@PEAPEAV123@00AEAU?$_Wrap_alloc@V?$allocator@PEAVErrorInfo@Reader@Json@@@std@@@0@@Z
pdata	ENDS
;	COMDAT pdata
pdata	SEGMENT
$pdata$??$construct@VErrorInfo@Reader@Json@@AEBV123@@?$allocator_traits@V?$allocator@VErrorInfo@Reader@Json@@@std@@@std@@SAXAEAV?$allocator@VErrorInfo@Reader@Json@@@1@PEAVErrorInfo@Reader@Json@@AEBV345@@Z DD imagerel $LN151@construct
	DD	imagerel $LN151@construct+124
	DD	imagerel $unwind$??$construct@VErrorInfo@Reader@Json@@AEBV123@@?$allocator_traits@V?$allocator@VErrorInfo@Reader@Json@@@std@@@std@@SAXAEAV?$allocator@VErrorInfo@Reader@Json@@@1@PEAVErrorInfo@Reader@Json@@AEBV345@@Z
pdata	ENDS
;	COMDAT pdata
pdata	SEGMENT
$pdata$?dtor$0@?0???$construct@VErrorInfo@Reader@Json@@AEBV123@@?$allocator_traits@V?$allocator@VErrorInfo@Reader@Json@@@std@@@std@@SAXAEAV?$allocator@VErrorInfo@Reader@Json@@@1@PEAVErrorInfo@Reader@Json@@AEBV345@@Z@4HA DD imagerel ?dtor$0@?0???$construct@VErrorInfo@Reader@Json@@AEBV123@@?$allocator_traits@V?$allocator@VErrorInfo@Reader@Json@@@std@@@std@@SAXAEAV?$allocator@VErrorInfo@Reader@Json@@@1@PEAVErrorInfo@Reader@Json@@AEBV345@@Z@4HA
	DD	imagerel ?dtor$0@?0???$construct@VErrorInfo@Reader@Json@@AEBV123@@?$allocator_traits@V?$allocator@VErrorInfo@Reader@Json@@@std@@@std@@SAXAEAV?$allocator@VErrorInfo@Reader@Json@@@1@PEAVErrorInfo@Reader@Json@@AEBV345@@Z@4HA+28
	DD	imagerel $unwind$?dtor$0@?0???$construct@VErrorInfo@Reader@Json@@AEBV123@@?$allocator_traits@V?$allocator@VErrorInfo@Reader@Json@@@std@@@std@@SAXAEAV?$allocator@VErrorInfo@Reader@Json@@@1@PEAVErrorInfo@Reader@Json@@AEBV345@@Z@4HA
pdata	ENDS
;	COMDAT pdata
pdata	SEGMENT
$pdata$??$getline@DU?$char_traits@D@std@@V?$allocator@D@2@@std@@YAAEAV?$basic_istream@DU?$char_traits@D@std@@@0@$$QEAV10@AEAV?$basic_string@DU?$char_traits@D@std@@V?$allocator@D@2@@0@D@Z DD imagerel $LN340@getline
	DD	imagerel $LN340@getline+732
	DD	imagerel $unwind$??$getline@DU?$char_traits@D@std@@V?$allocator@D@2@@std@@YAAEAV?$basic_istream@DU?$char_traits@D@std@@@0@$$QEAV10@AEAV?$basic_string@DU?$char_traits@D@std@@V?$allocator@D@2@@0@D@Z
pdata	ENDS
;	COMDAT pdata
pdata	SEGMENT
$pdata$?catch$4@?0???$getline@DU?$char_traits@D@std@@V?$allocator@D@2@@std@@YAAEAV?$basic_istream@DU?$char_traits@D@std@@@0@$$QEAV10@AEAV?$basic_string@DU?$char_traits@D@std@@V?$allocator@D@2@@0@D@Z@4HA DD imagerel ?catch$4@?0???$getline@DU?$char_traits@D@std@@V?$allocator@D@2@@std@@YAAEAV?$basic_istream@DU?$char_traits@D@std@@@0@$$QEAV10@AEAV?$basic_string@DU?$char_traits@D@std@@V?$allocator@D@2@@0@D@Z@4HA
	DD	imagerel ?catch$4@?0???$getline@DU?$char_traits@D@std@@V?$allocator@D@2@@std@@YAAEAV?$basic_istream@DU?$char_traits@D@std@@@0@$$QEAV10@AEAV?$basic_string@DU?$char_traits@D@std@@V?$allocator@D@2@@0@D@Z@4HA+70
	DD	imagerel $unwind$?catch$4@?0???$getline@DU?$char_traits@D@std@@V?$allocator@D@2@@std@@YAAEAV?$basic_istream@DU?$char_traits@D@std@@@0@$$QEAV10@AEAV?$basic_string@DU?$char_traits@D@std@@V?$allocator@D@2@@0@D@Z@4HA
pdata	ENDS
;	COMDAT pdata
pdata	SEGMENT
$pdata$?insert@?$basic_string@DU?$char_traits@D@std@@V?$allocator@D@2@@std@@QEAAAEAV12@_KAEBV12@00@Z DD imagerel $LN226@insert
	DD	imagerel $LN226@insert+45
	DD	imagerel $unwind$?insert@?$basic_string@DU?$char_traits@D@std@@V?$allocator@D@2@@std@@QEAAAEAV12@_KAEBV12@00@Z
pdata	ENDS
;	COMDAT pdata
pdata	SEGMENT
$pdata$0$?insert@?$basic_string@DU?$char_traits@D@std@@V?$allocator@D@2@@std@@QEAAAEAV12@_KAEBV12@00@Z DD imagerel $LN226@insert+45
	DD	imagerel $LN226@insert+77
	DD	imagerel $chain$0$?insert@?$basic_string@DU?$char_traits@D@std@@V?$allocator@D@2@@std@@QEAAAEAV12@_KAEBV12@00@Z
pdata	ENDS
;	COMDAT pdata
pdata	SEGMENT
$pdata$1$?insert@?$basic_string@DU?$char_traits@D@std@@V?$allocator@D@2@@std@@QEAAAEAV12@_KAEBV12@00@Z DD imagerel $LN226@insert+77
	DD	imagerel $LN226@insert+363
	DD	imagerel $chain$1$?insert@?$basic_string@DU?$char_traits@D@std@@V?$allocator@D@2@@std@@QEAAAEAV12@_KAEBV12@00@Z
pdata	ENDS
;	COMDAT pdata
pdata	SEGMENT
$pdata$3$?insert@?$basic_string@DU?$char_traits@D@std@@V?$allocator@D@2@@std@@QEAAAEAV12@_KAEBV12@00@Z DD imagerel $LN226@insert+363
	DD	imagerel $LN226@insert+369
	DD	imagerel $chain$3$?insert@?$basic_string@DU?$char_traits@D@std@@V?$allocator@D@2@@std@@QEAAAEAV12@_KAEBV12@00@Z
pdata	ENDS
;	COMDAT pdata
pdata	SEGMENT
$pdata$4$?insert@?$basic_string@DU?$char_traits@D@std@@V?$allocator@D@2@@std@@QEAAAEAV12@_KAEBV12@00@Z DD imagerel $LN226@insert+369
	DD	imagerel $LN226@insert+375
	DD	imagerel $chain$4$?insert@?$basic_string@DU?$char_traits@D@std@@V?$allocator@D@2@@std@@QEAAAEAV12@_KAEBV12@00@Z
pdata	ENDS
;	COMDAT pdata
pdata	SEGMENT
$pdata$5$?insert@?$basic_string@DU?$char_traits@D@std@@V?$allocator@D@2@@std@@QEAAAEAV12@_KAEBV12@00@Z DD imagerel $LN226@insert+375
	DD	imagerel $LN226@insert+381
	DD	imagerel $chain$5$?insert@?$basic_string@DU?$char_traits@D@std@@V?$allocator@D@2@@std@@QEAAAEAV12@_KAEBV12@00@Z
pdata	ENDS
;	COMDAT pdata
pdata	SEGMENT
$pdata$?insert@?$basic_string@DU?$char_traits@D@std@@V?$allocator@D@2@@std@@QEAAAEAV12@_KPEBD0@Z DD imagerel $LN210@insert
	DD	imagerel $LN210@insert+141
	DD	imagerel $unwind$?insert@?$basic_string@DU?$char_traits@D@std@@V?$allocator@D@2@@std@@QEAAAEAV12@_KPEBD0@Z
pdata	ENDS
;	COMDAT pdata
pdata	SEGMENT
$pdata$0$?insert@?$basic_string@DU?$char_traits@D@std@@V?$allocator@D@2@@std@@QEAAAEAV12@_KPEBD0@Z DD imagerel $LN210@insert+141
	DD	imagerel $LN210@insert+353
	DD	imagerel $chain$0$?insert@?$basic_string@DU?$char_traits@D@std@@V?$allocator@D@2@@std@@QEAAAEAV12@_KPEBD0@Z
pdata	ENDS
;	COMDAT pdata
pdata	SEGMENT
$pdata$2$?insert@?$basic_string@DU?$char_traits@D@std@@V?$allocator@D@2@@std@@QEAAAEAV12@_KPEBD0@Z DD imagerel $LN210@insert+353
	DD	imagerel $LN210@insert+359
	DD	imagerel $chain$2$?insert@?$basic_string@DU?$char_traits@D@std@@V?$allocator@D@2@@std@@QEAAAEAV12@_KPEBD0@Z
pdata	ENDS
;	COMDAT pdata
pdata	SEGMENT
$pdata$3$?insert@?$basic_string@DU?$char_traits@D@std@@V?$allocator@D@2@@std@@QEAAAEAV12@_KPEBD0@Z DD imagerel $LN210@insert+359
	DD	imagerel $LN210@insert+365
	DD	imagerel $chain$3$?insert@?$basic_string@DU?$char_traits@D@std@@V?$allocator@D@2@@std@@QEAAAEAV12@_KPEBD0@Z
pdata	ENDS
;	COMDAT pdata
pdata	SEGMENT
$pdata$??0bad_cast@std@@QEAA@AEBV01@@Z DD imagerel $LN7@bad_cast
	DD	imagerel $LN7@bad_cast+63
	DD	imagerel $unwind$??0bad_cast@std@@QEAA@AEBV01@@Z
pdata	ENDS
;	COMDAT pdata
pdata	SEGMENT
$pdata$??$_Uninitialized_copy@PEAPEAPEAVValue@Json@@PEAPEAPEAV12@V?$allocator@PEAPEAVValue@Json@@@std@@@std@@YAPEAPEAPEAVValue@Json@@PEAPEAPEAV12@00AEAU?$_Wrap_alloc@V?$allocator@PEAPEAVValue@Json@@@std@@@0@@Z DD imagerel $LN20@Uninitiali
	DD	imagerel $LN20@Uninitiali+48
	DD	imagerel $unwind$??$_Uninitialized_copy@PEAPEAPEAVValue@Json@@PEAPEAPEAV12@V?$allocator@PEAPEAVValue@Json@@@std@@@std@@YAPEAPEAPEAVValue@Json@@PEAPEAPEAV12@00AEAU?$_Wrap_alloc@V?$allocator@PEAPEAVValue@Json@@@std@@@0@@Z
pdata	ENDS
;	COMDAT pdata
pdata	SEGMENT
$pdata$??$_Uninitialized_copy@PEAPEAVErrorInfo@Reader@Json@@PEAPEAV123@V?$allocator@PEAVErrorInfo@Reader@Json@@@std@@@std@@YAPEAPEAVErrorInfo@Reader@Json@@PEAPEAV123@00AEAU?$_Wrap_alloc@V?$allocator@PEAVErrorInfo@Reader@Json@@@std@@@0@@Z DD imagerel $LN20@Uninitiali
	DD	imagerel $LN20@Uninitiali+48
	DD	imagerel $unwind$??$_Uninitialized_copy@PEAPEAVErrorInfo@Reader@Json@@PEAPEAV123@V?$allocator@PEAVErrorInfo@Reader@Json@@@std@@@std@@YAPEAPEAVErrorInfo@Reader@Json@@PEAPEAV123@00AEAU?$_Wrap_alloc@V?$allocator@PEAVErrorInfo@Reader@Json@@@std@@@0@@Z
pdata	ENDS
;	COMDAT pdata
pdata	SEGMENT
$pdata$??$emplace_back@$$V@?$deque@VErrorInfo@Reader@Json@@V?$allocator@VErrorInfo@Reader@Json@@@std@@@std@@QEAAXXZ DD imagerel $LN246@emplace_ba
	DD	imagerel $LN246@emplace_ba+172
	DD	imagerel $unwind$??$emplace_back@$$V@?$deque@VErrorInfo@Reader@Json@@V?$allocator@VErrorInfo@Reader@Json@@@std@@@std@@QEAAXXZ
pdata	ENDS
;	COMDAT pdata
pdata	SEGMENT
$pdata$??$construct@VErrorInfo@Reader@Json@@AEBV123@@?$_Wrap_alloc@V?$allocator@VErrorInfo@Reader@Json@@@std@@@std@@QEAAXPEAVErrorInfo@Reader@Json@@AEBV234@@Z DD imagerel $LN156@construct
	DD	imagerel $LN156@construct+124
	DD	imagerel $unwind$??$construct@VErrorInfo@Reader@Json@@AEBV123@@?$_Wrap_alloc@V?$allocator@VErrorInfo@Reader@Json@@@std@@@std@@QEAAXPEAVErrorInfo@Reader@Json@@AEBV234@@Z
pdata	ENDS
;	COMDAT pdata
pdata	SEGMENT
$pdata$?dtor$0@?0???$construct@VErrorInfo@Reader@Json@@AEBV123@@?$_Wrap_alloc@V?$allocator@VErrorInfo@Reader@Json@@@std@@@std@@QEAAXPEAVErrorInfo@Reader@Json@@AEBV234@@Z@4HA DD imagerel ?dtor$0@?0???$construct@VErrorInfo@Reader@Json@@AEBV123@@?$_Wrap_alloc@V?$allocator@VErrorInfo@Reader@Json@@@std@@@std@@QEAAXPEAVErrorInfo@Reader@Json@@AEBV234@@Z@4HA
	DD	imagerel ?dtor$0@?0???$construct@VErrorInfo@Reader@Json@@AEBV123@@?$_Wrap_alloc@V?$allocator@VErrorInfo@Reader@Json@@@std@@@std@@QEAAXPEAVErrorInfo@Reader@Json@@AEBV234@@Z@4HA+28
	DD	imagerel $unwind$?dtor$0@?0???$construct@VErrorInfo@Reader@Json@@AEBV123@@?$_Wrap_alloc@V?$allocator@VErrorInfo@Reader@Json@@@std@@@std@@QEAAXPEAVErrorInfo@Reader@Json@@AEBV234@@Z@4HA
pdata	ENDS
;	COMDAT pdata
pdata	SEGMENT
$pdata$??$?HDU?$char_traits@D@std@@V?$allocator@D@1@@std@@YA?AV?$basic_string@DU?$char_traits@D@std@@V?$allocator@D@2@@0@$$QEAV10@PEBD@Z DD imagerel $LN131@operator
	DD	imagerel $LN131@operator+62
	DD	imagerel $unwind$??$?HDU?$char_traits@D@std@@V?$allocator@D@1@@std@@YA?AV?$basic_string@DU?$char_traits@D@std@@V?$allocator@D@2@@0@$$QEAV10@PEBD@Z
pdata	ENDS
;	COMDAT pdata
pdata	SEGMENT
$pdata$??$?HDU?$char_traits@D@std@@V?$allocator@D@1@@std@@YA?AV?$basic_string@DU?$char_traits@D@std@@V?$allocator@D@2@@0@PEBD$$QEAV10@@Z DD imagerel $LN138@operator
	DD	imagerel $LN138@operator+92
	DD	imagerel $unwind$??$?HDU?$char_traits@D@std@@V?$allocator@D@1@@std@@YA?AV?$basic_string@DU?$char_traits@D@std@@V?$allocator@D@2@@0@PEBD$$QEAV10@@Z
pdata	ENDS
;	COMDAT pdata
pdata	SEGMENT
$pdata$??$_Immortalize@V_Iostream_error_category@std@@@std@@YAAEAV_Iostream_error_category@0@XZ DD imagerel $LN22@Immortaliz
	DD	imagerel $LN22@Immortaliz+114
	DD	imagerel $unwind$??$_Immortalize@V_Iostream_error_category@std@@@std@@YAAEAV_Iostream_error_category@0@XZ
pdata	ENDS
;	COMDAT pdata
pdata	SEGMENT
$pdata$??$use_facet@V?$ctype@D@std@@@std@@YAAEBV?$ctype@D@0@AEBVlocale@0@@Z DD imagerel $LN61@use_facet
	DD	imagerel $LN61@use_facet+379
	DD	imagerel $unwind$??$use_facet@V?$ctype@D@std@@@std@@YAAEBV?$ctype@D@0@AEBVlocale@0@@Z
pdata	ENDS
;	COMDAT pdata
pdata	SEGMENT
$pdata$?dtor$2@?0???$use_facet@V?$ctype@D@std@@@std@@YAAEBV?$ctype@D@0@AEBVlocale@0@@Z@4HA DD imagerel ?dtor$2@?0???$use_facet@V?$ctype@D@std@@@std@@YAAEBV?$ctype@D@0@AEBVlocale@0@@Z@4HA
	DD	imagerel ?dtor$2@?0???$use_facet@V?$ctype@D@std@@@std@@YAAEBV?$ctype@D@0@AEBVlocale@0@@Z@4HA+32
	DD	imagerel $unwind$?dtor$2@?0???$use_facet@V?$ctype@D@std@@@std@@YAAEBV?$ctype@D@0@AEBVlocale@0@@Z@4HA
pdata	ENDS
;	COMDAT pdata
pdata	SEGMENT
$pdata$?allocate@?$allocator@PEAPEAVValue@Json@@@std@@QEAAPEAPEAPEAVValue@Json@@_K@Z DD imagerel $LN16@allocate
	DD	imagerel $LN16@allocate+106
	DD	imagerel $unwind$?allocate@?$allocator@PEAPEAVValue@Json@@@std@@QEAAPEAPEAPEAVValue@Json@@_K@Z
pdata	ENDS
;	COMDAT pdata
pdata	SEGMENT
$pdata$?_Xlen@?$deque@PEAVValue@Json@@V?$allocator@PEAVValue@Json@@@std@@@std@@IEBAXXZ DD imagerel $LN4@Xlen
	DD	imagerel $LN4@Xlen+17
	DD	imagerel $unwind$?_Xlen@?$deque@PEAVValue@Json@@V?$allocator@PEAVValue@Json@@@std@@@std@@IEBAXXZ
pdata	ENDS
;	COMDAT pdata
pdata	SEGMENT
$pdata$?_Alloc_proxy@?$_Deque_alloc@U?$_Deque_base_types@PEAVValue@Json@@V?$allocator@PEAVValue@Json@@@std@@@std@@@std@@QEAAXXZ DD imagerel $LN73@Alloc_prox
	DD	imagerel $LN73@Alloc_prox+40
	DD	imagerel $unwind$?_Alloc_proxy@?$_Deque_alloc@U?$_Deque_base_types@PEAVValue@Json@@V?$allocator@PEAVValue@Json@@@std@@@std@@@std@@QEAAXXZ
pdata	ENDS
;	COMDAT pdata
pdata	SEGMENT
$pdata$?deallocate@?$allocator@PEAPEAVValue@Json@@@std@@QEAAXPEAPEAPEAVValue@Json@@_K@Z DD imagerel $LN16@deallocate
	DD	imagerel $LN16@deallocate+83
	DD	imagerel $unwind$?deallocate@?$allocator@PEAPEAVValue@Json@@@std@@QEAAXPEAPEAPEAVValue@Json@@_K@Z
pdata	ENDS
;	COMDAT pdata
pdata	SEGMENT
$pdata$?allocate@?$_Wrap_alloc@V?$allocator@PEAPEAVValue@Json@@@std@@@std@@QEAAPEAPEAPEAVValue@Json@@_K@Z DD imagerel $LN19@allocate
	DD	imagerel $LN19@allocate+106
	DD	imagerel $unwind$?allocate@?$_Wrap_alloc@V?$allocator@PEAPEAVValue@Json@@@std@@@std@@QEAAPEAPEAPEAVValue@Json@@_K@Z
pdata	ENDS
;	COMDAT pdata
pdata	SEGMENT
$pdata$?deallocate@?$allocator@PEAVErrorInfo@Reader@Json@@@std@@QEAAXPEAPEAVErrorInfo@Reader@Json@@_K@Z DD imagerel $LN16@deallocate
	DD	imagerel $LN16@deallocate+83
	DD	imagerel $unwind$?deallocate@?$allocator@PEAVErrorInfo@Reader@Json@@@std@@QEAAXPEAPEAVErrorInfo@Reader@Json@@_K@Z
pdata	ENDS
;	COMDAT pdata
pdata	SEGMENT
$pdata$?allocate@?$allocator@PEAVErrorInfo@Reader@Json@@@std@@QEAAPEAPEAVErrorInfo@Reader@Json@@_K@Z DD imagerel $LN16@allocate
	DD	imagerel $LN16@allocate+106
	DD	imagerel $unwind$?allocate@?$allocator@PEAVErrorInfo@Reader@Json@@@std@@QEAAPEAPEAVErrorInfo@Reader@Json@@_K@Z
pdata	ENDS
;	COMDAT pdata
pdata	SEGMENT
$pdata$?_Xlen@?$deque@VErrorInfo@Reader@Json@@V?$allocator@VErrorInfo@Reader@Json@@@std@@@std@@IEBAXXZ DD imagerel $LN4@Xlen
	DD	imagerel $LN4@Xlen+17
	DD	imagerel $unwind$?_Xlen@?$deque@VErrorInfo@Reader@Json@@V?$allocator@VErrorInfo@Reader@Json@@@std@@@std@@IEBAXXZ
pdata	ENDS
;	COMDAT pdata
pdata	SEGMENT
$pdata$?_Growmap@?$deque@PEAVValue@Json@@V?$allocator@PEAVValue@Json@@@std@@@std@@IEAAX_K@Z DD imagerel $LN310@Growmap
	DD	imagerel $LN310@Growmap+74
	DD	imagerel $unwind$?_Growmap@?$deque@PEAVValue@Json@@V?$allocator@PEAVValue@Json@@@std@@@std@@IEAAX_K@Z
pdata	ENDS
;	COMDAT pdata
pdata	SEGMENT
$pdata$2$?_Growmap@?$deque@PEAVValue@Json@@V?$allocator@PEAVValue@Json@@@std@@@std@@IEAAX_K@Z DD imagerel $LN310@Growmap+74
	DD	imagerel $LN310@Growmap+189
	DD	imagerel $chain$2$?_Growmap@?$deque@PEAVValue@Json@@V?$allocator@PEAVValue@Json@@@std@@@std@@IEAAX_K@Z
pdata	ENDS
;	COMDAT pdata
pdata	SEGMENT
$pdata$5$?_Growmap@?$deque@PEAVValue@Json@@V?$allocator@PEAVValue@Json@@@std@@@std@@IEAAX_K@Z DD imagerel $LN310@Growmap+189
	DD	imagerel $LN310@Growmap+376
	DD	imagerel $chain$5$?_Growmap@?$deque@PEAVValue@Json@@V?$allocator@PEAVValue@Json@@@std@@@std@@IEAAX_K@Z
pdata	ENDS
;	COMDAT pdata
pdata	SEGMENT
$pdata$6$?_Growmap@?$deque@PEAVValue@Json@@V?$allocator@PEAVValue@Json@@@std@@@std@@IEAAX_K@Z DD imagerel $LN310@Growmap+376
	DD	imagerel $LN310@Growmap+466
	DD	imagerel $chain$6$?_Growmap@?$deque@PEAVValue@Json@@V?$allocator@PEAVValue@Json@@@std@@@std@@IEAAX_K@Z
pdata	ENDS
;	COMDAT pdata
pdata	SEGMENT
$pdata$8$?_Growmap@?$deque@PEAVValue@Json@@V?$allocator@PEAVValue@Json@@@std@@@std@@IEAAX_K@Z DD imagerel $LN310@Growmap+466
	DD	imagerel $LN310@Growmap+472
	DD	imagerel $chain$8$?_Growmap@?$deque@PEAVValue@Json@@V?$allocator@PEAVValue@Json@@@std@@@std@@IEAAX_K@Z
pdata	ENDS
;	COMDAT pdata
pdata	SEGMENT
$pdata$9$?_Growmap@?$deque@PEAVValue@Json@@V?$allocator@PEAVValue@Json@@@std@@@std@@IEAAX_K@Z DD imagerel $LN310@Growmap+472
	DD	imagerel $LN310@Growmap+478
	DD	imagerel $chain$9$?_Growmap@?$deque@PEAVValue@Json@@V?$allocator@PEAVValue@Json@@@std@@@std@@IEAAX_K@Z
pdata	ENDS
;	COMDAT pdata
pdata	SEGMENT
$pdata$10$?_Growmap@?$deque@PEAVValue@Json@@V?$allocator@PEAVValue@Json@@@std@@@std@@IEAAX_K@Z DD imagerel $LN310@Growmap+478
	DD	imagerel $LN310@Growmap+484
	DD	imagerel $chain$10$?_Growmap@?$deque@PEAVValue@Json@@V?$allocator@PEAVValue@Json@@@std@@@std@@IEAAX_K@Z
pdata	ENDS
;	COMDAT pdata
pdata	SEGMENT
$pdata$??0?$_Deque_alloc@U?$_Deque_base_types@PEAVValue@Json@@V?$allocator@PEAVValue@Json@@@std@@@std@@@std@@QEAA@XZ DD imagerel $LN86@Deque_allo
	DD	imagerel $LN86@Deque_allo+62
	DD	imagerel $unwind$??0?$_Deque_alloc@U?$_Deque_base_types@PEAVValue@Json@@V?$allocator@PEAVValue@Json@@@std@@@std@@@std@@QEAA@XZ
pdata	ENDS
;	COMDAT pdata
pdata	SEGMENT
$pdata$?_Free_proxy@?$_Deque_alloc@U?$_Deque_base_types@PEAVValue@Json@@V?$allocator@PEAVValue@Json@@@std@@@std@@@std@@QEAAXXZ DD imagerel $LN68@Free_proxy
	DD	imagerel $LN68@Free_proxy+30
	DD	imagerel $unwind$?_Free_proxy@?$_Deque_alloc@U?$_Deque_base_types@PEAVValue@Json@@V?$allocator@PEAVValue@Json@@@std@@@std@@@std@@QEAAXXZ
pdata	ENDS
;	COMDAT pdata
pdata	SEGMENT
$pdata$?deallocate@?$_Wrap_alloc@V?$allocator@PEAPEAVValue@Json@@@std@@@std@@QEAAXPEAPEAPEAVValue@Json@@_K@Z DD imagerel $LN19@deallocate
	DD	imagerel $LN19@deallocate+83
	DD	imagerel $unwind$?deallocate@?$_Wrap_alloc@V?$allocator@PEAPEAVValue@Json@@@std@@@std@@QEAAXPEAPEAPEAVValue@Json@@_K@Z
pdata	ENDS
;	COMDAT pdata
pdata	SEGMENT
$pdata$?_Alloc_proxy@?$_Deque_alloc@U?$_Deque_base_types@VErrorInfo@Reader@Json@@V?$allocator@VErrorInfo@Reader@Json@@@std@@@std@@@std@@QEAAXXZ DD imagerel $LN73@Alloc_prox
	DD	imagerel $LN73@Alloc_prox+40
	DD	imagerel $unwind$?_Alloc_proxy@?$_Deque_alloc@U?$_Deque_base_types@VErrorInfo@Reader@Json@@V?$allocator@VErrorInfo@Reader@Json@@@std@@@std@@@std@@QEAAXXZ
pdata	ENDS
;	COMDAT pdata
pdata	SEGMENT
$pdata$?_Free_proxy@?$_Deque_alloc@U?$_Deque_base_types@VErrorInfo@Reader@Json@@V?$allocator@VErrorInfo@Reader@Json@@@std@@@std@@@std@@QEAAXXZ DD imagerel $LN68@Free_proxy
	DD	imagerel $LN68@Free_proxy+30
	DD	imagerel $unwind$?_Free_proxy@?$_Deque_alloc@U?$_Deque_base_types@VErrorInfo@Reader@Json@@V?$allocator@VErrorInfo@Reader@Json@@@std@@@std@@@std@@QEAAXXZ
pdata	ENDS
;	COMDAT pdata
pdata	SEGMENT
$pdata$?allocate@?$_Wrap_alloc@V?$allocator@PEAVErrorInfo@Reader@Json@@@std@@@std@@QEAAPEAPEAVErrorInfo@Reader@Json@@_K@Z DD imagerel $LN19@allocate
	DD	imagerel $LN19@allocate+106
	DD	imagerel $unwind$?allocate@?$_Wrap_alloc@V?$allocator@PEAVErrorInfo@Reader@Json@@@std@@@std@@QEAAPEAPEAVErrorInfo@Reader@Json@@_K@Z
pdata	ENDS
;	COMDAT pdata
pdata	SEGMENT
$pdata$?deallocate@?$_Wrap_alloc@V?$allocator@PEAVErrorInfo@Reader@Json@@@std@@@std@@QEAAXPEAPEAVErrorInfo@Reader@Json@@_K@Z DD imagerel $LN19@deallocate
	DD	imagerel $LN19@deallocate+83
	DD	imagerel $unwind$?deallocate@?$_Wrap_alloc@V?$allocator@PEAVErrorInfo@Reader@Json@@@std@@@std@@QEAAXPEAPEAVErrorInfo@Reader@Json@@_K@Z
pdata	ENDS
;	COMDAT pdata
pdata	SEGMENT
$pdata$?append@?$basic_string@DU?$char_traits@D@std@@V?$allocator@D@2@@std@@QEAAAEAV12@AEBV12@_K1@Z DD imagerel $LN156@append
	DD	imagerel $LN156@append+75
	DD	imagerel $unwind$?append@?$basic_string@DU?$char_traits@D@std@@V?$allocator@D@2@@std@@QEAAAEAV12@AEBV12@_K1@Z
pdata	ENDS
;	COMDAT pdata
pdata	SEGMENT
$pdata$0$?append@?$basic_string@DU?$char_traits@D@std@@V?$allocator@D@2@@std@@QEAAAEAV12@AEBV12@_K1@Z DD imagerel $LN156@append+75
	DD	imagerel $LN156@append+253
	DD	imagerel $chain$0$?append@?$basic_string@DU?$char_traits@D@std@@V?$allocator@D@2@@std@@QEAAAEAV12@AEBV12@_K1@Z
pdata	ENDS
;	COMDAT pdata
pdata	SEGMENT
$pdata$2$?append@?$basic_string@DU?$char_traits@D@std@@V?$allocator@D@2@@std@@QEAAAEAV12@AEBV12@_K1@Z DD imagerel $LN156@append+253
	DD	imagerel $LN156@append+259
	DD	imagerel $chain$2$?append@?$basic_string@DU?$char_traits@D@std@@V?$allocator@D@2@@std@@QEAAAEAV12@AEBV12@_K1@Z
pdata	ENDS
;	COMDAT pdata
pdata	SEGMENT
$pdata$3$?append@?$basic_string@DU?$char_traits@D@std@@V?$allocator@D@2@@std@@QEAAAEAV12@AEBV12@_K1@Z DD imagerel $LN156@append+259
	DD	imagerel $LN156@append+271
	DD	imagerel $chain$3$?append@?$basic_string@DU?$char_traits@D@std@@V?$allocator@D@2@@std@@QEAAAEAV12@AEBV12@_K1@Z
pdata	ENDS
;	COMDAT pdata
pdata	SEGMENT
$pdata$?append@?$basic_string@DU?$char_traits@D@std@@V?$allocator@D@2@@std@@QEAAAEAV12@PEBD_K@Z DD imagerel $LN173@append
	DD	imagerel $LN173@append+138
	DD	imagerel $unwind$?append@?$basic_string@DU?$char_traits@D@std@@V?$allocator@D@2@@std@@QEAAAEAV12@PEBD_K@Z
pdata	ENDS
;	COMDAT pdata
pdata	SEGMENT
$pdata$0$?append@?$basic_string@DU?$char_traits@D@std@@V?$allocator@D@2@@std@@QEAAAEAV12@PEBD_K@Z DD imagerel $LN173@append+138
	DD	imagerel $LN173@append+298
	DD	imagerel $chain$0$?append@?$basic_string@DU?$char_traits@D@std@@V?$allocator@D@2@@std@@QEAAAEAV12@PEBD_K@Z
pdata	ENDS
;	COMDAT pdata
pdata	SEGMENT
$pdata$2$?append@?$basic_string@DU?$char_traits@D@std@@V?$allocator@D@2@@std@@QEAAAEAV12@PEBD_K@Z DD imagerel $LN173@append+298
	DD	imagerel $LN173@append+304
	DD	imagerel $chain$2$?append@?$basic_string@DU?$char_traits@D@std@@V?$allocator@D@2@@std@@QEAAAEAV12@PEBD_K@Z
pdata	ENDS
;	COMDAT pdata
pdata	SEGMENT
$pdata$3$?append@?$basic_string@DU?$char_traits@D@std@@V?$allocator@D@2@@std@@QEAAAEAV12@PEBD_K@Z DD imagerel $LN173@append+304
	DD	imagerel $LN173@append+310
	DD	imagerel $chain$3$?append@?$basic_string@DU?$char_traits@D@std@@V?$allocator@D@2@@std@@QEAAAEAV12@PEBD_K@Z
pdata	ENDS
;	COMDAT pdata
pdata	SEGMENT
$pdata$?append@?$basic_string@DU?$char_traits@D@std@@V?$allocator@D@2@@std@@QEAAAEAV12@_KD@Z DD imagerel $LN140@append
	DD	imagerel $LN140@append+44
	DD	imagerel $unwind$?append@?$basic_string@DU?$char_traits@D@std@@V?$allocator@D@2@@std@@QEAAAEAV12@_KD@Z
pdata	ENDS
;	COMDAT pdata
pdata	SEGMENT
$pdata$0$?append@?$basic_string@DU?$char_traits@D@std@@V?$allocator@D@2@@std@@QEAAAEAV12@_KD@Z DD imagerel $LN140@append+44
	DD	imagerel $LN140@append+237
	DD	imagerel $chain$0$?append@?$basic_string@DU?$char_traits@D@std@@V?$allocator@D@2@@std@@QEAAAEAV12@_KD@Z
pdata	ENDS
;	COMDAT pdata
pdata	SEGMENT
$pdata$2$?append@?$basic_string@DU?$char_traits@D@std@@V?$allocator@D@2@@std@@QEAAAEAV12@_KD@Z DD imagerel $LN140@append+237
	DD	imagerel $LN140@append+243
	DD	imagerel $chain$2$?append@?$basic_string@DU?$char_traits@D@std@@V?$allocator@D@2@@std@@QEAAAEAV12@_KD@Z
pdata	ENDS
;	COMDAT pdata
pdata	SEGMENT
$pdata$3$?append@?$basic_string@DU?$char_traits@D@std@@V?$allocator@D@2@@std@@QEAAAEAV12@_KD@Z DD imagerel $LN140@append+243
	DD	imagerel $LN140@append+249
	DD	imagerel $chain$3$?append@?$basic_string@DU?$char_traits@D@std@@V?$allocator@D@2@@std@@QEAAAEAV12@_KD@Z
pdata	ENDS
;	COMDAT pdata
pdata	SEGMENT
$pdata$?_Tidy@?$_Yarn@D@std@@AEAAXXZ DD imagerel $LN6@Tidy
	DD	imagerel $LN6@Tidy+35
	DD	imagerel $unwind$?_Tidy@?$_Yarn@D@std@@AEAAXXZ
pdata	ENDS
;	COMDAT pdata
pdata	SEGMENT
$pdata$?_Tidy@?$_Yarn@_W@std@@AEAAXXZ DD imagerel $LN6@Tidy
	DD	imagerel $LN6@Tidy+35
	DD	imagerel $unwind$?_Tidy@?$_Yarn@_W@std@@AEAAXXZ
pdata	ENDS
;	COMDAT pdata
pdata	SEGMENT
$pdata$?pop_back@?$deque@VErrorInfo@Reader@Json@@V?$allocator@VErrorInfo@Reader@Json@@@std@@@std@@QEAAXXZ DD imagerel $LN62@pop_back
	DD	imagerel $LN62@pop_back+71
	DD	imagerel $unwind$?pop_back@?$deque@VErrorInfo@Reader@Json@@V?$allocator@VErrorInfo@Reader@Json@@@std@@@std@@QEAAXXZ
pdata	ENDS
;	COMDAT pdata
pdata	SEGMENT
$pdata$?_Growmap@?$deque@VErrorInfo@Reader@Json@@V?$allocator@VErrorInfo@Reader@Json@@@std@@@std@@IEAAX_K@Z DD imagerel $LN310@Growmap
	DD	imagerel $LN310@Growmap+74
	DD	imagerel $unwind$?_Growmap@?$deque@VErrorInfo@Reader@Json@@V?$allocator@VErrorInfo@Reader@Json@@@std@@@std@@IEAAX_K@Z
pdata	ENDS
;	COMDAT pdata
pdata	SEGMENT
$pdata$2$?_Growmap@?$deque@VErrorInfo@Reader@Json@@V?$allocator@VErrorInfo@Reader@Json@@@std@@@std@@IEAAX_K@Z DD imagerel $LN310@Growmap+74
	DD	imagerel $LN310@Growmap+186
	DD	imagerel $chain$2$?_Growmap@?$deque@VErrorInfo@Reader@Json@@V?$allocator@VErrorInfo@Reader@Json@@@std@@@std@@IEAAX_K@Z
pdata	ENDS
;	COMDAT pdata
pdata	SEGMENT
$pdata$5$?_Growmap@?$deque@VErrorInfo@Reader@Json@@V?$allocator@VErrorInfo@Reader@Json@@@std@@@std@@IEAAX_K@Z DD imagerel $LN310@Growmap+186
	DD	imagerel $LN310@Growmap+373
	DD	imagerel $chain$5$?_Growmap@?$deque@VErrorInfo@Reader@Json@@V?$allocator@VErrorInfo@Reader@Json@@@std@@@std@@IEAAX_K@Z
pdata	ENDS
;	COMDAT pdata
pdata	SEGMENT
$pdata$6$?_Growmap@?$deque@VErrorInfo@Reader@Json@@V?$allocator@VErrorInfo@Reader@Json@@@std@@@std@@IEAAX_K@Z DD imagerel $LN310@Growmap+373
	DD	imagerel $LN310@Growmap+463
	DD	imagerel $chain$6$?_Growmap@?$deque@VErrorInfo@Reader@Json@@V?$allocator@VErrorInfo@Reader@Json@@@std@@@std@@IEAAX_K@Z
pdata	ENDS
;	COMDAT pdata
pdata	SEGMENT
$pdata$8$?_Growmap@?$deque@VErrorInfo@Reader@Json@@V?$allocator@VErrorInfo@Reader@Json@@@std@@@std@@IEAAX_K@Z DD imagerel $LN310@Growmap+463
	DD	imagerel $LN310@Growmap+469
	DD	imagerel $chain$8$?_Growmap@?$deque@VErrorInfo@Reader@Json@@V?$allocator@VErrorInfo@Reader@Json@@@std@@@std@@IEAAX_K@Z
pdata	ENDS
;	COMDAT pdata
pdata	SEGMENT
$pdata$9$?_Growmap@?$deque@VErrorInfo@Reader@Json@@V?$allocator@VErrorInfo@Reader@Json@@@std@@@std@@IEAAX_K@Z DD imagerel $LN310@Growmap+469
	DD	imagerel $LN310@Growmap+475
	DD	imagerel $chain$9$?_Growmap@?$deque@VErrorInfo@Reader@Json@@V?$allocator@VErrorInfo@Reader@Json@@@std@@@std@@IEAAX_K@Z
pdata	ENDS
;	COMDAT pdata
pdata	SEGMENT
$pdata$10$?_Growmap@?$deque@VErrorInfo@Reader@Json@@V?$allocator@VErrorInfo@Reader@Json@@@std@@@std@@IEAAX_K@Z DD imagerel $LN310@Growmap+475
	DD	imagerel $LN310@Growmap+481
	DD	imagerel $chain$10$?_Growmap@?$deque@VErrorInfo@Reader@Json@@V?$allocator@VErrorInfo@Reader@Json@@@std@@@std@@IEAAX_K@Z
pdata	ENDS
;	COMDAT pdata
pdata	SEGMENT
$pdata$?_Tidy@?$deque@VErrorInfo@Reader@Json@@V?$allocator@VErrorInfo@Reader@Json@@@std@@@std@@IEAAXXZ DD imagerel $LN204@Tidy
	DD	imagerel $LN204@Tidy+247
	DD	imagerel $unwind$?_Tidy@?$deque@VErrorInfo@Reader@Json@@V?$allocator@VErrorInfo@Reader@Json@@@std@@@std@@IEAAXXZ
pdata	ENDS
;	COMDAT pdata
pdata	SEGMENT
$pdata$??0?$deque@PEAVValue@Json@@V?$allocator@PEAVValue@Json@@@std@@@std@@QEAA@XZ DD imagerel $LN90@deque
	DD	imagerel $LN90@deque+62
	DD	imagerel $unwind$??0?$deque@PEAVValue@Json@@V?$allocator@PEAVValue@Json@@@std@@@std@@QEAA@XZ
pdata	ENDS
;	COMDAT pdata
pdata	SEGMENT
$pdata$?push_back@?$deque@PEAVValue@Json@@V?$allocator@PEAVValue@Json@@@std@@@std@@QEAAX$$QEAPEAVValue@Json@@@Z DD imagerel $LN140@push_back
	DD	imagerel $LN140@push_back+191
	DD	imagerel $unwind$?push_back@?$deque@PEAVValue@Json@@V?$allocator@PEAVValue@Json@@@std@@@std@@QEAAX$$QEAPEAVValue@Json@@@Z
pdata	ENDS
;	COMDAT pdata
pdata	SEGMENT
$pdata$?back@?$deque@PEAVValue@Json@@V?$allocator@PEAVValue@Json@@@std@@@std@@QEAAAEAPEAVValue@Json@@XZ DD imagerel $LN31@back
	DD	imagerel $LN31@back+78
	DD	imagerel $unwind$?back@?$deque@PEAVValue@Json@@V?$allocator@PEAVValue@Json@@@std@@@std@@QEAAAEAPEAVValue@Json@@XZ
pdata	ENDS
;	COMDAT pdata
pdata	SEGMENT
$pdata$?_Tidy@?$deque@PEAVValue@Json@@V?$allocator@PEAVValue@Json@@@std@@@std@@IEAAXXZ DD imagerel $LN196@Tidy
	DD	imagerel $LN196@Tidy+199
	DD	imagerel $unwind$?_Tidy@?$deque@PEAVValue@Json@@V?$allocator@PEAVValue@Json@@@std@@@std@@IEAAXXZ
pdata	ENDS
;	COMDAT pdata
pdata	SEGMENT
$pdata$??1?$_Deque_alloc@U?$_Deque_base_types@PEAVValue@Json@@V?$allocator@PEAVValue@Json@@@std@@@std@@@std@@QEAA@XZ DD imagerel $LN81@Deque_allo
	DD	imagerel $LN81@Deque_allo+30
	DD	imagerel $unwind$??1?$_Deque_alloc@U?$_Deque_base_types@PEAVValue@Json@@V?$allocator@PEAVValue@Json@@@std@@@std@@@std@@QEAA@XZ
pdata	ENDS
;	COMDAT pdata
pdata	SEGMENT
$pdata$??0?$_Deque_alloc@U?$_Deque_base_types@VErrorInfo@Reader@Json@@V?$allocator@VErrorInfo@Reader@Json@@@std@@@std@@@std@@QEAA@XZ DD imagerel $LN86@Deque_allo
	DD	imagerel $LN86@Deque_allo+62
	DD	imagerel $unwind$??0?$_Deque_alloc@U?$_Deque_base_types@VErrorInfo@Reader@Json@@V?$allocator@VErrorInfo@Reader@Json@@@std@@@std@@@std@@QEAA@XZ
pdata	ENDS
;	COMDAT pdata
pdata	SEGMENT
$pdata$??1?$_Deque_alloc@U?$_Deque_base_types@VErrorInfo@Reader@Json@@V?$allocator@VErrorInfo@Reader@Json@@@std@@@std@@@std@@QEAA@XZ DD imagerel $LN81@Deque_allo
	DD	imagerel $LN81@Deque_allo+30
	DD	imagerel $unwind$??1?$_Deque_alloc@U?$_Deque_base_types@VErrorInfo@Reader@Json@@V?$allocator@VErrorInfo@Reader@Json@@@std@@@std@@@std@@QEAA@XZ
pdata	ENDS
;	COMDAT pdata
pdata	SEGMENT
$pdata$??4?$basic_string@DU?$char_traits@D@std@@V?$allocator@D@2@@std@@QEAAAEAV01@AEBV01@@Z DD imagerel $LN132@operator
	DD	imagerel $LN132@operator+38
	DD	imagerel $unwind$??4?$basic_string@DU?$char_traits@D@std@@V?$allocator@D@2@@std@@QEAAAEAV01@AEBV01@@Z
pdata	ENDS
;	COMDAT pdata
pdata	SEGMENT
$pdata$??Y?$basic_string@DU?$char_traits@D@std@@V?$allocator@D@2@@std@@QEAAAEAV01@D@Z DD imagerel $LN143@operator
	DD	imagerel $LN143@operator+36
	DD	imagerel $unwind$??Y?$basic_string@DU?$char_traits@D@std@@V?$allocator@D@2@@std@@QEAAAEAV01@D@Z
pdata	ENDS
;	COMDAT pdata
pdata	SEGMENT
$pdata$0$??Y?$basic_string@DU?$char_traits@D@std@@V?$allocator@D@2@@std@@QEAAAEAV01@D@Z DD imagerel $LN143@operator+36
	DD	imagerel $LN143@operator+131
	DD	imagerel $chain$0$??Y?$basic_string@DU?$char_traits@D@std@@V?$allocator@D@2@@std@@QEAAAEAV01@D@Z
pdata	ENDS
;	COMDAT pdata
pdata	SEGMENT
$pdata$2$??Y?$basic_string@DU?$char_traits@D@std@@V?$allocator@D@2@@std@@QEAAAEAV01@D@Z DD imagerel $LN143@operator+131
	DD	imagerel $LN143@operator+153
	DD	imagerel $chain$2$??Y?$basic_string@DU?$char_traits@D@std@@V?$allocator@D@2@@std@@QEAAAEAV01@D@Z
pdata	ENDS
;	COMDAT pdata
pdata	SEGMENT
$pdata$4$??Y?$basic_string@DU?$char_traits@D@std@@V?$allocator@D@2@@std@@QEAAAEAV01@D@Z DD imagerel $LN143@operator+153
	DD	imagerel $LN143@operator+202
	DD	imagerel $chain$4$??Y?$basic_string@DU?$char_traits@D@std@@V?$allocator@D@2@@std@@QEAAAEAV01@D@Z
pdata	ENDS
;	COMDAT pdata
pdata	SEGMENT
$pdata$6$??Y?$basic_string@DU?$char_traits@D@std@@V?$allocator@D@2@@std@@QEAAAEAV01@D@Z DD imagerel $LN143@operator+202
	DD	imagerel $LN143@operator+208
	DD	imagerel $chain$6$??Y?$basic_string@DU?$char_traits@D@std@@V?$allocator@D@2@@std@@QEAAAEAV01@D@Z
pdata	ENDS
;	COMDAT pdata
pdata	SEGMENT
$pdata$7$??Y?$basic_string@DU?$char_traits@D@std@@V?$allocator@D@2@@std@@QEAAAEAV01@D@Z DD imagerel $LN143@operator+208
	DD	imagerel $LN143@operator+214
	DD	imagerel $chain$7$??Y?$basic_string@DU?$char_traits@D@std@@V?$allocator@D@2@@std@@QEAAAEAV01@D@Z
pdata	ENDS
;	COMDAT pdata
pdata	SEGMENT
$pdata$?append@?$basic_string@DU?$char_traits@D@std@@V?$allocator@D@2@@std@@QEAAAEAV12@PEBD@Z DD imagerel $LN181@append
	DD	imagerel $LN181@append+318
	DD	imagerel $unwind$?append@?$basic_string@DU?$char_traits@D@std@@V?$allocator@D@2@@std@@QEAAAEAV12@PEBD@Z
pdata	ENDS
;	COMDAT pdata
pdata	SEGMENT
$pdata$?reserve@?$basic_string@DU?$char_traits@D@std@@V?$allocator@D@2@@std@@QEAAX_K@Z DD imagerel $LN106@reserve
	DD	imagerel $LN106@reserve+165
	DD	imagerel $unwind$?reserve@?$basic_string@DU?$char_traits@D@std@@V?$allocator@D@2@@std@@QEAAX_K@Z
pdata	ENDS
;	COMDAT pdata
pdata	SEGMENT
$pdata$??1?$_Yarn@D@std@@QEAA@XZ DD imagerel $LN9@Yarn
	DD	imagerel $LN9@Yarn+35
	DD	imagerel $unwind$??1?$_Yarn@D@std@@QEAA@XZ
pdata	ENDS
;	COMDAT pdata
pdata	SEGMENT
$pdata$??1?$_Yarn@_W@std@@QEAA@XZ DD imagerel $LN9@Yarn
	DD	imagerel $LN9@Yarn+35
	DD	imagerel $unwind$??1?$_Yarn@_W@std@@QEAA@XZ
pdata	ENDS
;	COMDAT pdata
pdata	SEGMENT
$pdata$??0?$deque@VErrorInfo@Reader@Json@@V?$allocator@VErrorInfo@Reader@Json@@@std@@@std@@QEAA@XZ DD imagerel $LN90@deque
	DD	imagerel $LN90@deque+62
	DD	imagerel $unwind$??0?$deque@VErrorInfo@Reader@Json@@V?$allocator@VErrorInfo@Reader@Json@@@std@@@std@@QEAA@XZ
pdata	ENDS
;	COMDAT pdata
pdata	SEGMENT
$pdata$??1?$deque@VErrorInfo@Reader@Json@@V?$allocator@VErrorInfo@Reader@Json@@@std@@@std@@QEAA@XZ DD imagerel $LN85@deque
	DD	imagerel $LN85@deque+35
	DD	imagerel $unwind$??1?$deque@VErrorInfo@Reader@Json@@V?$allocator@VErrorInfo@Reader@Json@@@std@@@std@@QEAA@XZ
pdata	ENDS
;	COMDAT pdata
pdata	SEGMENT
$pdata$?resize@?$deque@VErrorInfo@Reader@Json@@V?$allocator@VErrorInfo@Reader@Json@@@std@@@std@@QEAAX_K@Z DD imagerel $LN340@resize
	DD	imagerel $LN340@resize+36
	DD	imagerel $unwind$?resize@?$deque@VErrorInfo@Reader@Json@@V?$allocator@VErrorInfo@Reader@Json@@@std@@@std@@QEAAX_K@Z
pdata	ENDS
;	COMDAT pdata
pdata	SEGMENT
$pdata$0$?resize@?$deque@VErrorInfo@Reader@Json@@V?$allocator@VErrorInfo@Reader@Json@@@std@@@std@@QEAAX_K@Z DD imagerel $LN340@resize+36
	DD	imagerel $LN340@resize+213
	DD	imagerel $chain$0$?resize@?$deque@VErrorInfo@Reader@Json@@V?$allocator@VErrorInfo@Reader@Json@@@std@@@std@@QEAAX_K@Z
pdata	ENDS
;	COMDAT pdata
pdata	SEGMENT
$pdata$1$?resize@?$deque@VErrorInfo@Reader@Json@@V?$allocator@VErrorInfo@Reader@Json@@@std@@@std@@QEAAX_K@Z DD imagerel $LN340@resize+213
	DD	imagerel $LN340@resize+297
	DD	imagerel $chain$1$?resize@?$deque@VErrorInfo@Reader@Json@@V?$allocator@VErrorInfo@Reader@Json@@@std@@@std@@QEAAX_K@Z
pdata	ENDS
;	COMDAT pdata
pdata	SEGMENT
$pdata$?push_back@?$deque@VErrorInfo@Reader@Json@@V?$allocator@VErrorInfo@Reader@Json@@@std@@@std@@QEAAXAEBVErrorInfo@Reader@Json@@@Z DD imagerel $LN273@push_back
	DD	imagerel $LN273@push_back+231
	DD	imagerel $unwind$?push_back@?$deque@VErrorInfo@Reader@Json@@V?$allocator@VErrorInfo@Reader@Json@@@std@@@std@@QEAAXAEBVErrorInfo@Reader@Json@@@Z
pdata	ENDS
;	COMDAT pdata
pdata	SEGMENT
$pdata$?dtor$0@?0??push_back@?$deque@VErrorInfo@Reader@Json@@V?$allocator@VErrorInfo@Reader@Json@@@std@@@std@@QEAAXAEBVErrorInfo@Reader@Json@@@Z@4HA DD imagerel ?dtor$0@?0??push_back@?$deque@VErrorInfo@Reader@Json@@V?$allocator@VErrorInfo@Reader@Json@@@std@@@std@@QEAAXAEBVErrorInfo@Reader@Json@@@Z@4HA
	DD	imagerel ?dtor$0@?0??push_back@?$deque@VErrorInfo@Reader@Json@@V?$allocator@VErrorInfo@Reader@Json@@@std@@@std@@QEAAXAEBVErrorInfo@Reader@Json@@@Z@4HA+28
	DD	imagerel $unwind$?dtor$0@?0??push_back@?$deque@VErrorInfo@Reader@Json@@V?$allocator@VErrorInfo@Reader@Json@@@std@@@std@@QEAAXAEBVErrorInfo@Reader@Json@@@Z@4HA
pdata	ENDS
;	COMDAT pdata
pdata	SEGMENT
$pdata$??1?$deque@PEAVValue@Json@@V?$allocator@PEAVValue@Json@@@std@@@std@@QEAA@XZ DD imagerel $LN278@deque
	DD	imagerel $LN278@deque+210
	DD	imagerel $unwind$??1?$deque@PEAVValue@Json@@V?$allocator@PEAVValue@Json@@@std@@@std@@QEAA@XZ
pdata	ENDS
;	COMDAT pdata
pdata	SEGMENT
$pdata$??0?$stack@PEAVValue@Json@@V?$deque@PEAVValue@Json@@V?$allocator@PEAVValue@Json@@@std@@@std@@@std@@QEAA@XZ DD imagerel $LN94@stack
	DD	imagerel $LN94@stack+62
	DD	imagerel $unwind$??0?$stack@PEAVValue@Json@@V?$deque@PEAVValue@Json@@V?$allocator@PEAVValue@Json@@@std@@@std@@@std@@QEAA@XZ
pdata	ENDS
;	COMDAT pdata
pdata	SEGMENT
$pdata$?push@?$stack@PEAVValue@Json@@V?$deque@PEAVValue@Json@@V?$allocator@PEAVValue@Json@@@std@@@std@@@std@@QEAAX$$QEAPEAVValue@Json@@@Z DD imagerel $LN145@push
	DD	imagerel $LN145@push+191
	DD	imagerel $unwind$?push@?$stack@PEAVValue@Json@@V?$deque@PEAVValue@Json@@V?$allocator@PEAVValue@Json@@@std@@@std@@@std@@QEAAX$$QEAPEAVValue@Json@@@Z
pdata	ENDS
;	COMDAT pdata
pdata	SEGMENT
$pdata$?top@?$stack@PEAVValue@Json@@V?$deque@PEAVValue@Json@@V?$allocator@PEAVValue@Json@@@std@@@std@@@std@@QEAAAEAPEAVValue@Json@@XZ DD imagerel $LN33@top
	DD	imagerel $LN33@top+78
	DD	imagerel $unwind$?top@?$stack@PEAVValue@Json@@V?$deque@PEAVValue@Json@@V?$allocator@PEAVValue@Json@@@std@@@std@@@std@@QEAAAEAPEAVValue@Json@@XZ
pdata	ENDS
;	COMDAT pdata
pdata	SEGMENT
$pdata$??1Reader@Json@@QEAA@XZ DD imagerel $LN369@Reader
	DD	imagerel $LN369@Reader+258
	DD	imagerel $unwind$??1Reader@Json@@QEAA@XZ
pdata	ENDS
;	COMDAT pdata
pdata	SEGMENT
$pdata$?currentValue@Reader@Json@@AEAAAEAVValue@2@XZ DD imagerel $LN35@currentVal
	DD	imagerel $LN35@currentVal+82
	DD	imagerel $unwind$?currentValue@Reader@Json@@AEAAAEAVValue@2@XZ
pdata	ENDS
;	COMDAT pdata
pdata	SEGMENT
$pdata$?addErrorAndRecover@Reader@Json@@AEAA_NAEBV?$basic_string@DU?$char_traits@D@std@@V?$allocator@D@2@@std@@AEAVToken@12@W4TokenType@12@@Z DD imagerel $LN26@addErrorAn
	DD	imagerel $LN26@addErrorAn+104
	DD	imagerel $unwind$?addErrorAndRecover@Reader@Json@@AEAA_NAEBV?$basic_string@DU?$char_traits@D@std@@V?$allocator@D@2@@std@@AEAVToken@12@W4TokenType@12@@Z
pdata	ENDS
;	COMDAT pdata
pdata	SEGMENT
$pdata$?recoverFromError@Reader@Json@@AEAA_NW4TokenType@12@@Z DD imagerel $LN24@recoverFro
	DD	imagerel $LN24@recoverFro+103
	DD	imagerel $unwind$?recoverFromError@Reader@Json@@AEAA_NW4TokenType@12@@Z
pdata	ENDS
;	COMDAT pdata
pdata	SEGMENT
$pdata$?addError@Reader@Json@@AEAA_NAEBV?$basic_string@DU?$char_traits@D@std@@V?$allocator@D@2@@std@@AEAVToken@12@PEBD@Z DD imagerel $LN519@addError
	DD	imagerel $LN519@addError+350
	DD	imagerel $unwind$?addError@Reader@Json@@AEAA_NAEBV?$basic_string@DU?$char_traits@D@std@@V?$allocator@D@2@@std@@AEAVToken@12@PEBD@Z
pdata	ENDS
;	COMDAT pdata
pdata	SEGMENT
$pdata$?dtor$3@?0??addError@Reader@Json@@AEAA_NAEBV?$basic_string@DU?$char_traits@D@std@@V?$allocator@D@2@@std@@AEAVToken@12@PEBD@Z@4HA DD imagerel ?dtor$3@?0??addError@Reader@Json@@AEAA_NAEBV?$basic_string@DU?$char_traits@D@std@@V?$allocator@D@2@@std@@AEAVToken@12@PEBD@Z@4HA
	DD	imagerel ?dtor$3@?0??addError@Reader@Json@@AEAA_NAEBV?$basic_string@DU?$char_traits@D@std@@V?$allocator@D@2@@std@@AEAVToken@12@PEBD@Z@4HA+28
	DD	imagerel $unwind$?dtor$3@?0??addError@Reader@Json@@AEAA_NAEBV?$basic_string@DU?$char_traits@D@std@@V?$allocator@D@2@@std@@AEAVToken@12@PEBD@Z@4HA
pdata	ENDS
;	COMDAT pdata
pdata	SEGMENT
$pdata$?decodeUnicodeEscapeSequence@Reader@Json@@AEAA_NAEAVToken@12@AEAPEBDPEBDAEAI@Z DD imagerel $LN472@decodeUnic
	DD	imagerel $LN472@decodeUnic+530
	DD	imagerel $unwind$?decodeUnicodeEscapeSequence@Reader@Json@@AEAA_NAEAVToken@12@AEAPEBDPEBDAEAI@Z
pdata	ENDS
;	COMDAT pdata
pdata	SEGMENT
$pdata$?decodeUnicodeCodePoint@Reader@Json@@AEAA_NAEAVToken@12@AEAPEBDPEBDAEAI@Z DD imagerel $LN239@decodeUnic
	DD	imagerel $LN239@decodeUnic+394
	DD	imagerel $unwind$?decodeUnicodeCodePoint@Reader@Json@@AEAA_NAEAVToken@12@AEAPEBDPEBDAEAI@Z
pdata	ENDS
;	COMDAT pdata
pdata	SEGMENT
$pdata$?decodeString@Reader@Json@@AEAA_NAEAVToken@12@AEAV?$basic_string@DU?$char_traits@D@std@@V?$allocator@D@2@@std@@@Z DD imagerel $LN2202@decodeStri
	DD	imagerel $LN2202@decodeStri+2440
	DD	imagerel $unwind$?decodeString@Reader@Json@@AEAA_NAEAVToken@12@AEAV?$basic_string@DU?$char_traits@D@std@@V?$allocator@D@2@@std@@@Z
pdata	ENDS
;	COMDAT pdata
pdata	SEGMENT
$pdata$?decodeString@Reader@Json@@AEAA_NAEAVToken@12@@Z DD imagerel $LN307@decodeStri
	DD	imagerel $LN307@decodeStri+535
	DD	imagerel $unwind$?decodeString@Reader@Json@@AEAA_NAEAVToken@12@@Z
pdata	ENDS
;	COMDAT pdata
pdata	SEGMENT
$pdata$?decodeDouble@Reader@Json@@AEAA_NAEAVToken@12@@Z DD imagerel $LN769@decodeDoub
	DD	imagerel $LN769@decodeDoub+1039
	DD	imagerel $unwind$?decodeDouble@Reader@Json@@AEAA_NAEAVToken@12@@Z
pdata	ENDS
;	COMDAT pdata
pdata	SEGMENT
$pdata$?decodeNumber@Reader@Json@@AEAA_NAEAVToken@12@@Z DD imagerel $LN649@decodeNumb
	DD	imagerel $LN649@decodeNumb+1340
	DD	imagerel $unwind$?decodeNumber@Reader@Json@@AEAA_NAEAVToken@12@@Z
pdata	ENDS
;	COMDAT pdata
pdata	SEGMENT
$pdata$?readArray@Reader@Json@@AEAA_NAEAVToken@12@@Z DD imagerel $LN614@readArray
	DD	imagerel $LN614@readArray+996
	DD	imagerel $unwind$?readArray@Reader@Json@@AEAA_NAEAVToken@12@@Z
pdata	ENDS
;	COMDAT pdata
pdata	SEGMENT
$pdata$?dtor$2@?0??readArray@Reader@Json@@AEAA_NAEAVToken@12@@Z@4HA DD imagerel ?dtor$2@?0??readArray@Reader@Json@@AEAA_NAEAVToken@12@@Z@4HA
	DD	imagerel ?dtor$2@?0??readArray@Reader@Json@@AEAA_NAEAVToken@12@@Z@4HA+29
	DD	imagerel $unwind$?dtor$2@?0??readArray@Reader@Json@@AEAA_NAEAVToken@12@@Z@4HA
pdata	ENDS
;	COMDAT pdata
pdata	SEGMENT
$pdata$?readObject@Reader@Json@@AEAA_NAEAVToken@12@@Z DD imagerel $LN1699@readObject
	DD	imagerel $LN1699@readObject+1710
	DD	imagerel $unwind$?readObject@Reader@Json@@AEAA_NAEAVToken@12@@Z
pdata	ENDS
;	COMDAT pdata
pdata	SEGMENT
$pdata$?dtor$6@?0??readObject@Reader@Json@@AEAA_NAEAVToken@12@@Z@4HA DD imagerel ?dtor$6@?0??readObject@Reader@Json@@AEAA_NAEAVToken@12@@Z@4HA
	DD	imagerel ?dtor$6@?0??readObject@Reader@Json@@AEAA_NAEAVToken@12@@Z@4HA+29
	DD	imagerel $unwind$?dtor$6@?0??readObject@Reader@Json@@AEAA_NAEAVToken@12@@Z@4HA
pdata	ENDS
;	COMDAT pdata
pdata	SEGMENT
$pdata$?addComment@Reader@Json@@AEAAXPEBD0W4CommentPlacement@2@@Z DD imagerel $LN492@addComment
	DD	imagerel $LN492@addComment+449
	DD	imagerel $unwind$?addComment@Reader@Json@@AEAAXPEBD0W4CommentPlacement@2@@Z
pdata	ENDS
;	COMDAT pdata
pdata	SEGMENT
$pdata$?readComment@Reader@Json@@AEAA_NXZ DD imagerel $LN80@readCommen
	DD	imagerel $LN80@readCommen+293
	DD	imagerel $unwind$?readComment@Reader@Json@@AEAA_NXZ
pdata	ENDS
;	COMDAT pdata
pdata	SEGMENT
$pdata$?match@Reader@Json@@AEAA_NPEBDH@Z DD imagerel $LN13@match
	DD	imagerel $LN13@match+100
	DD	imagerel $unwind$?match@Reader@Json@@AEAA_NPEBDH@Z
pdata	ENDS
;	COMDAT pdata
pdata	SEGMENT
$pdata$?readToken@Reader@Json@@AEAA_NAEAVToken@12@@Z DD imagerel $LN113@readToken
	DD	imagerel $LN113@readToken+906
	DD	imagerel $unwind$?readToken@Reader@Json@@AEAA_NAEAVToken@12@@Z
pdata	ENDS
;	COMDAT pdata
pdata	SEGMENT
$pdata$?skipCommentTokens@Reader@Json@@AEAAXAEAVToken@12@@Z DD imagerel $LN12@skipCommen
	DD	imagerel $LN12@skipCommen+74
	DD	imagerel $unwind$?skipCommentTokens@Reader@Json@@AEAAXAEAVToken@12@@Z
pdata	ENDS
;	COMDAT pdata
pdata	SEGMENT
$pdata$?readValue@Reader@Json@@AEAA_NXZ DD imagerel $LN511@readValue
	DD	imagerel $LN511@readValue+1196
	DD	imagerel $unwind$?readValue@Reader@Json@@AEAA_NXZ
pdata	ENDS
;	COMDAT pdata
pdata	SEGMENT
$pdata$?parse@Reader@Json@@QEAA_NPEBD0AEAVValue@2@_N@Z DD imagerel $LN345@parse
	DD	imagerel $LN345@parse+527
	DD	imagerel $unwind$?parse@Reader@Json@@QEAA_NPEBD0AEAVValue@2@_N@Z
pdata	ENDS
;	COMDAT pdata
pdata	SEGMENT
$pdata$?parse@Reader@Json@@QEAA_NAEBV?$basic_string@DU?$char_traits@D@std@@V?$allocator@D@2@@std@@AEAVValue@2@_N@Z DD imagerel $LN156@parse
	DD	imagerel $LN156@parse+114
	DD	imagerel $unwind$?parse@Reader@Json@@QEAA_NAEBV?$basic_string@DU?$char_traits@D@std@@V?$allocator@D@2@@std@@AEAVValue@2@_N@Z
pdata	ENDS
;	COMDAT pdata
pdata	SEGMENT
$pdata$??1?$stack@PEAVValue@Json@@V?$deque@PEAVValue@Json@@V?$allocator@PEAVValue@Json@@@std@@@std@@@std@@QEAA@XZ DD imagerel $LN282@stack
	DD	imagerel $LN282@stack+210
	DD	imagerel $unwind$??1?$stack@PEAVValue@Json@@V?$deque@PEAVValue@Json@@V?$allocator@PEAVValue@Json@@@std@@@std@@@std@@QEAA@XZ
pdata	ENDS
;	COMDAT pdata
pdata	SEGMENT
$pdata$??0Reader@Json@@QEAA@XZ DD imagerel $LN406@Reader
	DD	imagerel $LN406@Reader+196
	DD	imagerel $unwind$??0Reader@Json@@QEAA@XZ
pdata	ENDS
;	COMDAT pdata
pdata	SEGMENT
$pdata$?codePointToUTF8@Json@@YA?AV?$basic_string@DU?$char_traits@D@std@@V?$allocator@D@2@@std@@I@Z DD imagerel ?codePointToUTF8@Json@@YA?AV?$basic_string@DU?$char_traits@D@std@@V?$allocator@D@2@@std@@I@Z
	DD	imagerel ?codePointToUTF8@Json@@YA?AV?$basic_string@DU?$char_traits@D@std@@V?$allocator@D@2@@std@@I@Z+705
	DD	imagerel $unwind$?codePointToUTF8@Json@@YA?AV?$basic_string@DU?$char_traits@D@std@@V?$allocator@D@2@@std@@I@Z
pdata	ENDS
;	COMDAT pdata
pdata	SEGMENT
$pdata$?dtor$0@?0??codePointToUTF8@Json@@YA?AV?$basic_string@DU?$char_traits@D@std@@V?$allocator@D@2@@std@@I@Z@4HA DD imagerel ?dtor$0@?0??codePointToUTF8@Json@@YA?AV?$basic_string@DU?$char_traits@D@std@@V?$allocator@D@2@@std@@I@Z@4HA
	DD	imagerel ?dtor$0@?0??codePointToUTF8@Json@@YA?AV?$basic_string@DU?$char_traits@D@std@@V?$allocator@D@2@@std@@I@Z@4HA+38
	DD	imagerel $unwind$?dtor$0@?0??codePointToUTF8@Json@@YA?AV?$basic_string@DU?$char_traits@D@std@@V?$allocator@D@2@@std@@I@Z@4HA
pdata	ENDS
;	COMDAT pdata
pdata	SEGMENT
$pdata$??0_System_error@std@@QEAA@AEBV01@@Z DD imagerel $LN10@System_err
	DD	imagerel $LN10@System_err+80
	DD	imagerel $unwind$??0_System_error@std@@QEAA@AEBV01@@Z
pdata	ENDS
;	COMDAT pdata
pdata	SEGMENT
$pdata$??0system_error@std@@QEAA@AEBV01@@Z DD imagerel $LN13@system_err
	DD	imagerel $LN13@system_err+90
	DD	imagerel $unwind$??0system_error@std@@QEAA@AEBV01@@Z
pdata	ENDS
;	COMDAT pdata
pdata	SEGMENT
$pdata$??0failure@ios_base@std@@QEAA@AEBV012@@Z DD imagerel $LN16@failure
	DD	imagerel $LN16@failure+90
	DD	imagerel $unwind$??0failure@ios_base@std@@QEAA@AEBV012@@Z
pdata	ENDS
;	COMDAT pdata
pdata	SEGMENT
$pdata$??_Gfailure@ios_base@std@@UEAAPEAXI@Z DD imagerel $LN21@scalar
	DD	imagerel $LN21@scalar+66
	DD	imagerel $unwind$??_Gfailure@ios_base@std@@UEAAPEAXI@Z
pdata	ENDS
;	COMDAT pdata
pdata	SEGMENT
$pdata$?getloc@ios_base@std@@QEBA?AVlocale@2@XZ DD imagerel $LN8@getloc
	DD	imagerel $LN8@getloc+46
	DD	imagerel $unwind$?getloc@ios_base@std@@QEBA?AVlocale@2@XZ
pdata	ENDS
;	COMDAT pdata
pdata	SEGMENT
$pdata$?clear@ios_base@std@@QEAAXH_N@Z DD imagerel $LN16@clear
	DD	imagerel $LN16@clear+186
	DD	imagerel $unwind$?clear@ios_base@std@@QEAAXH_N@Z
pdata	ENDS
;	COMDAT pdata
pdata	SEGMENT
$pdata$??0failure@ios_base@std@@QEAA@PEBDAEBVerror_code@2@@Z DD imagerel $LN6@failure
	DD	imagerel $LN6@failure+50
	DD	imagerel $unwind$??0failure@ios_base@std@@QEAA@PEBDAEBVerror_code@2@@Z
pdata	ENDS
;	COMDAT pdata
pdata	SEGMENT
$pdata$?iostream_category@std@@YAAEBVerror_category@1@XZ DD imagerel $LN24@iostream_c
	DD	imagerel $LN24@iostream_c+114
	DD	imagerel $unwind$?iostream_category@std@@YAAEBVerror_category@1@XZ
pdata	ENDS
;	COMDAT pdata
pdata	SEGMENT
$pdata$??_G_Iostream_error_category@std@@UEAAPEAXI@Z DD imagerel $LN15@scalar
	DD	imagerel $LN15@scalar+43
	DD	imagerel $unwind$??_G_Iostream_error_category@std@@UEAAPEAXI@Z
pdata	ENDS
;	COMDAT pdata
pdata	SEGMENT
$pdata$?message@_Iostream_error_category@std@@UEBA?AV?$basic_string@DU?$char_traits@D@std@@V?$allocator@D@2@@2@H@Z DD imagerel $LN123@message
	DD	imagerel $LN123@message+78
	DD	imagerel $unwind$?message@_Iostream_error_category@std@@UEBA?AV?$basic_string@DU?$char_traits@D@std@@V?$allocator@D@2@@2@H@Z
pdata	ENDS
;	COMDAT pdata
pdata	SEGMENT
$pdata$??_G_Generic_error_category@std@@UEAAPEAXI@Z DD imagerel $LN12@scalar
	DD	imagerel $LN12@scalar+43
	DD	imagerel $unwind$??_G_Generic_error_category@std@@UEAAPEAXI@Z
pdata	ENDS
;	COMDAT pdata
pdata	SEGMENT
$pdata$?message@_Generic_error_category@std@@UEBA?AV?$basic_string@DU?$char_traits@D@std@@V?$allocator@D@2@@2@H@Z DD imagerel $LN121@message
	DD	imagerel $LN121@message+78
	DD	imagerel $unwind$?message@_Generic_error_category@std@@UEBA?AV?$basic_string@DU?$char_traits@D@std@@V?$allocator@D@2@@2@H@Z
pdata	ENDS
;	COMDAT pdata
pdata	SEGMENT
$pdata$??_Gsystem_error@std@@UEAAPEAXI@Z DD imagerel $LN18@scalar
	DD	imagerel $LN18@scalar+66
	DD	imagerel $unwind$??_Gsystem_error@std@@UEAAPEAXI@Z
pdata	ENDS
;	COMDAT pdata
pdata	SEGMENT
$pdata$??0system_error@std@@QEAA@Verror_code@1@PEBD@Z DD imagerel $LN498@system_err
	DD	imagerel $LN498@system_err+532
	DD	imagerel $unwind$??0system_error@std@@QEAA@Verror_code@1@PEBD@Z
pdata	ENDS
;	COMDAT pdata
pdata	SEGMENT
$pdata$??_G_System_error@std@@UEAAPEAXI@Z DD imagerel $LN15@scalar
	DD	imagerel $LN15@scalar+66
	DD	imagerel $unwind$??_G_System_error@std@@UEAAPEAXI@Z
pdata	ENDS
;	COMDAT pdata
pdata	SEGMENT
$pdata$??0_System_error@std@@IEAA@Verror_code@1@AEBV?$basic_string@DU?$char_traits@D@std@@V?$allocator@D@2@@1@@Z DD imagerel $LN266@System_err
	DD	imagerel $LN266@System_err+300
	DD	imagerel $unwind$??0_System_error@std@@IEAA@Verror_code@1@AEBV?$basic_string@DU?$char_traits@D@std@@V?$allocator@D@2@@1@@Z
pdata	ENDS
;	COMDAT pdata
pdata	SEGMENT
$pdata$?_Makestr@_System_error@std@@CA?AV?$basic_string@DU?$char_traits@D@std@@V?$allocator@D@2@@2@Verror_code@2@V32@@Z DD imagerel $LN255@Makestr
	DD	imagerel $LN255@Makestr+263
	DD	imagerel $unwind$?_Makestr@_System_error@std@@CA?AV?$basic_string@DU?$char_traits@D@std@@V?$allocator@D@2@@2@Verror_code@2@V32@@Z
pdata	ENDS
;	COMDAT pdata
pdata	SEGMENT
$pdata$?make_error_code@std@@YA?AVerror_code@1@W4io_errc@1@@Z DD imagerel $LN26@make_error
	DD	imagerel $LN26@make_error+141
	DD	imagerel $unwind$?make_error_code@std@@YA?AVerror_code@1@W4io_errc@1@@Z
pdata	ENDS
;	COMDAT pdata
pdata	SEGMENT
$pdata$?equivalent@error_category@std@@UEBA_NHAEBVerror_condition@2@@Z DD imagerel $LN19@equivalent
	DD	imagerel $LN19@equivalent+63
	DD	imagerel $unwind$?equivalent@error_category@std@@UEBA_NHAEBVerror_condition@2@@Z
pdata	ENDS
;	COMDAT pdata
pdata	SEGMENT
$pdata$?message@error_code@std@@QEBA?AV?$basic_string@DU?$char_traits@D@std@@V?$allocator@D@2@@2@XZ DD imagerel $LN11@message
	DD	imagerel $LN11@message+35
	DD	imagerel $unwind$?message@error_code@std@@QEBA?AV?$basic_string@DU?$char_traits@D@std@@V?$allocator@D@2@@2@XZ
pdata	ENDS
;	COMDAT pdata
pdata	SEGMENT
$pdata$??_Gerror_category@std@@UEAAPEAXI@Z DD imagerel $LN9@scalar
	DD	imagerel $LN9@scalar+43
	DD	imagerel $unwind$??_Gerror_category@std@@UEAAPEAXI@Z
pdata	ENDS
;	COMDAT pdata
pdata	SEGMENT
$pdata$??_G?$ctype@D@std@@MEAAPEAXI@Z DD imagerel $LN24@scalar
	DD	imagerel $LN24@scalar+106
	DD	imagerel $unwind$??_G?$ctype@D@std@@MEAAPEAXI@Z
pdata	ENDS
;	COMDAT pdata
pdata	SEGMENT
$pdata$?do_narrow@?$ctype@D@std@@MEBAPEBDPEBD0DPEAD@Z DD imagerel $LN4@do_narrow
	DD	imagerel $LN4@do_narrow+31
	DD	imagerel $unwind$?do_narrow@?$ctype@D@std@@MEBAPEBDPEBD0DPEAD@Z
pdata	ENDS
;	COMDAT pdata
pdata	SEGMENT
$pdata$?do_widen@?$ctype@D@std@@MEBAPEBDPEBD0PEAD@Z DD imagerel $LN4@do_widen
	DD	imagerel $LN4@do_widen+29
	DD	imagerel $unwind$?do_widen@?$ctype@D@std@@MEBAPEBDPEBD0PEAD@Z
pdata	ENDS
;	COMDAT pdata
pdata	SEGMENT
$pdata$?do_toupper@?$ctype@D@std@@MEBAPEBDPEADPEBD@Z DD imagerel $LN12@do_toupper
	DD	imagerel $LN12@do_toupper+38
	DD	imagerel $unwind$?do_toupper@?$ctype@D@std@@MEBAPEBDPEADPEBD@Z
pdata	ENDS
;	COMDAT pdata
pdata	SEGMENT
$pdata$0$?do_toupper@?$ctype@D@std@@MEBAPEBDPEADPEBD@Z DD imagerel $LN12@do_toupper+38
	DD	imagerel $LN12@do_toupper+77
	DD	imagerel $chain$0$?do_toupper@?$ctype@D@std@@MEBAPEBDPEADPEBD@Z
pdata	ENDS
;	COMDAT pdata
pdata	SEGMENT
$pdata$1$?do_toupper@?$ctype@D@std@@MEBAPEBDPEADPEBD@Z DD imagerel $LN12@do_toupper+77
	DD	imagerel $LN12@do_toupper+96
	DD	imagerel $chain$1$?do_toupper@?$ctype@D@std@@MEBAPEBDPEADPEBD@Z
pdata	ENDS
;	COMDAT pdata
pdata	SEGMENT
$pdata$?do_tolower@?$ctype@D@std@@MEBAPEBDPEADPEBD@Z DD imagerel $LN12@do_tolower
	DD	imagerel $LN12@do_tolower+38
	DD	imagerel $unwind$?do_tolower@?$ctype@D@std@@MEBAPEBDPEADPEBD@Z
pdata	ENDS
;	COMDAT pdata
pdata	SEGMENT
$pdata$0$?do_tolower@?$ctype@D@std@@MEBAPEBDPEADPEBD@Z DD imagerel $LN12@do_tolower+38
	DD	imagerel $LN12@do_tolower+77
	DD	imagerel $chain$0$?do_tolower@?$ctype@D@std@@MEBAPEBDPEADPEBD@Z
pdata	ENDS
;	COMDAT pdata
pdata	SEGMENT
$pdata$1$?do_tolower@?$ctype@D@std@@MEBAPEBDPEADPEBD@Z DD imagerel $LN12@do_tolower+77
	DD	imagerel $LN12@do_tolower+96
	DD	imagerel $chain$1$?do_tolower@?$ctype@D@std@@MEBAPEBDPEADPEBD@Z
pdata	ENDS
;	COMDAT pdata
pdata	SEGMENT
$pdata$?_Tidy@?$ctype@D@std@@IEAAXXZ DD imagerel $LN8@Tidy
	DD	imagerel $LN8@Tidy+64
	DD	imagerel $unwind$?_Tidy@?$ctype@D@std@@IEAAXXZ
pdata	ENDS
;	COMDAT pdata
pdata	SEGMENT
$pdata$?_Init@?$ctype@D@std@@IEAAXAEBV_Locinfo@2@@Z DD imagerel $LN6@Init
	DD	imagerel $LN6@Init+40
	DD	imagerel $unwind$?_Init@?$ctype@D@std@@IEAAXAEBV_Locinfo@2@@Z
pdata	ENDS
;	COMDAT pdata
pdata	SEGMENT
$pdata$??1?$ctype@D@std@@MEAA@XZ DD imagerel $LN19@ctype
	DD	imagerel $LN19@ctype+73
	DD	imagerel $unwind$??1?$ctype@D@std@@MEAA@XZ
pdata	ENDS
;	COMDAT pdata
pdata	SEGMENT
$pdata$?_Getcat@?$ctype@D@std@@SA_KPEAPEBVfacet@locale@2@PEBV42@@Z DD imagerel $LN36@Getcat
	DD	imagerel $LN36@Getcat+188
	DD	imagerel $unwind$?_Getcat@?$ctype@D@std@@SA_KPEAPEBVfacet@locale@2@PEBV42@@Z
pdata	ENDS
;	COMDAT pdata
pdata	SEGMENT
$pdata$?dtor$0@?0??_Getcat@?$ctype@D@std@@SA_KPEAPEBVfacet@locale@2@PEBV42@@Z@4HA DD imagerel ?dtor$0@?0??_Getcat@?$ctype@D@std@@SA_KPEAPEBVfacet@locale@2@PEBV42@@Z@4HA
	DD	imagerel ?dtor$0@?0??_Getcat@?$ctype@D@std@@SA_KPEAPEBVfacet@locale@2@PEBV42@@Z@4HA+32
	DD	imagerel $unwind$?dtor$0@?0??_Getcat@?$ctype@D@std@@SA_KPEAPEBVfacet@locale@2@PEBV42@@Z@4HA
pdata	ENDS
;	COMDAT pdata
pdata	SEGMENT
$pdata$??0?$ctype@D@std@@QEAA@AEBV_Locinfo@1@_K@Z DD imagerel $LN17@ctype
	DD	imagerel $LN17@ctype+57
	DD	imagerel $unwind$??0?$ctype@D@std@@QEAA@AEBV_Locinfo@1@_K@Z
pdata	ENDS
;	COMDAT pdata
pdata	SEGMENT
$pdata$??_Gctype_base@std@@UEAAPEAXI@Z DD imagerel $LN15@scalar
	DD	imagerel $LN15@scalar+43
	DD	imagerel $unwind$??_Gctype_base@std@@UEAAPEAXI@Z
pdata	ENDS
;	COMDAT pdata
pdata	SEGMENT
$pdata$??_Gfacet@locale@std@@MEAAPEAXI@Z DD imagerel $LN12@scalar
	DD	imagerel $LN12@scalar+43
	DD	imagerel $unwind$??_Gfacet@locale@std@@MEAAPEAXI@Z
pdata	ENDS
;	COMDAT pdata
pdata	SEGMENT
$pdata$?_Getfacet@locale@std@@QEBAPEBVfacet@12@_K@Z DD imagerel $LN12@Getfacet
	DD	imagerel $LN12@Getfacet+82
	DD	imagerel $unwind$?_Getfacet@locale@std@@QEBAPEBVfacet@12@_K@Z
pdata	ENDS
;	COMDAT pdata
pdata	SEGMENT
$pdata$??1locale@std@@QEAA@XZ DD imagerel $LN8@locale
	DD	imagerel $LN8@locale+57
	DD	imagerel $unwind$??1locale@std@@QEAA@XZ
pdata	ENDS
;	COMDAT pdata
pdata	SEGMENT
$pdata$??0locale@std@@QEAA@AEBV01@@Z DD imagerel $LN5@locale
	DD	imagerel $LN5@locale+42
	DD	imagerel $unwind$??0locale@std@@QEAA@AEBV01@@Z
pdata	ENDS
;	COMDAT pdata
pdata	SEGMENT
$pdata$??Bid@locale@std@@QEAA_KXZ DD imagerel $LN9@operator
	DD	imagerel $LN9@operator+73
	DD	imagerel $unwind$??Bid@locale@std@@QEAA_KXZ
pdata	ENDS
;	COMDAT pdata
pdata	SEGMENT
$pdata$??_G_Facet_base@std@@UEAAPEAXI@Z DD imagerel $LN9@scalar
	DD	imagerel $LN9@scalar+43
	DD	imagerel $unwind$??_G_Facet_base@std@@UEAAPEAXI@Z
pdata	ENDS
;	COMDAT pdata
pdata	SEGMENT
$pdata$?_Getctype@_Locinfo@std@@QEBA?AU_Ctypevec@@XZ DD imagerel $LN4@Getctype
	DD	imagerel $LN4@Getctype+42
	DD	imagerel $unwind$?_Getctype@_Locinfo@std@@QEBA?AU_Ctypevec@@XZ
pdata	ENDS
;	COMDAT pdata
pdata	SEGMENT
$pdata$??1_Locinfo@std@@QEAA@XZ DD imagerel $LN35@Locinfo
	DD	imagerel $LN35@Locinfo+163
	DD	imagerel $unwind$??1_Locinfo@std@@QEAA@XZ
pdata	ENDS
;	COMDAT pdata
pdata	SEGMENT
$pdata$??0_Locinfo@std@@QEAA@PEBD@Z DD imagerel $LN27@Locinfo
	DD	imagerel $LN27@Locinfo+150
	DD	imagerel $unwind$??0_Locinfo@std@@QEAA@PEBD@Z
pdata	ENDS
;	COMDAT pdata
pdata	SEGMENT
$pdata$??_Gbad_cast@std@@UEAAPEAXI@Z DD imagerel $LN12@scalar
	DD	imagerel $LN12@scalar+66
	DD	imagerel $unwind$??_Gbad_cast@std@@UEAAPEAXI@Z
pdata	ENDS
;	COMDAT pdata
pdata	SEGMENT
$pdata$??0runtime_error@std@@QEAA@AEBV?$basic_string@DU?$char_traits@D@std@@V?$allocator@D@2@@1@@Z DD imagerel $LN21@runtime_er
	DD	imagerel $LN21@runtime_er+84
	DD	imagerel $unwind$??0runtime_error@std@@QEAA@AEBV?$basic_string@DU?$char_traits@D@std@@V?$allocator@D@2@@1@@Z
pdata	ENDS
;	COMDAT pdata
pdata	SEGMENT
$pdata$?assign@?$char_traits@D@std@@SAPEADPEAD_KD@Z DD imagerel $LN4@assign
	DD	imagerel $LN4@assign+33
	DD	imagerel $unwind$?assign@?$char_traits@D@std@@SAPEADPEAD_KD@Z
pdata	ENDS
;	COMDAT pdata
pdata	SEGMENT
$pdata$sscanf DD imagerel $LN8@sscanf
	DD	imagerel $LN8@sscanf+81
	DD	imagerel $unwind$sscanf
pdata	ENDS
;	COMDAT pdata
pdata	SEGMENT
$pdata$_vsscanf_l DD imagerel $LN4@vsscanf_l
	DD	imagerel $LN4@vsscanf_l+89
	DD	imagerel $unwind$_vsscanf_l
pdata	ENDS
;	COMDAT pdata
pdata	SEGMENT
$pdata$sprintf DD imagerel $LN10@sprintf
	DD	imagerel $LN10@sprintf+93
	DD	imagerel $unwind$sprintf
pdata	ENDS
;	COMDAT pdata
pdata	SEGMENT
$pdata$_vsprintf_l DD imagerel $LN6@vsprintf_l
	DD	imagerel $LN6@vsprintf_l+92
	DD	imagerel $unwind$_vsprintf_l
pdata	ENDS
;	COMDAT pdata
pdata	SEGMENT
$pdata$_vsnprintf_l DD imagerel $LN4@vsnprintf_
	DD	imagerel $LN4@vsnprintf_+104
	DD	imagerel $unwind$_vsnprintf_l
;	COMDAT xdata
xdata	SEGMENT
$unwind$_vsnprintf_l DD 081401H
	DD	0a6414H
	DD	095414H
	DD	083414H
	DD	070105214H
xdata	ENDS
;	COMDAT xdata
xdata	SEGMENT
$unwind$_vsprintf_l DD 060f01H
	DD	09640fH
	DD	08340fH
	DD	0700b520fH
xdata	ENDS
;	COMDAT xdata
xdata	SEGMENT
$unwind$sprintf DD 041601H
	DD	070125216H
	DD	030106011H
xdata	ENDS
;	COMDAT xdata
xdata	SEGMENT
$unwind$_vsscanf_l DD 081401H
	DD	0a6414H
	DD	095414H
	DD	083414H
	DD	070105214H
xdata	ENDS
;	COMDAT xdata
xdata	SEGMENT
$unwind$sscanf DD 041601H
	DD	070125216H
	DD	030106011H
xdata	ENDS
;	COMDAT xdata
xdata	SEGMENT
$unwind$?assign@?$char_traits@D@std@@SAPEADPEAD_KD@Z DD 020601H
	DD	030023206H
xdata	ENDS
;	COMDAT xdata
xdata	SEGMENT
$unwind$??0runtime_error@std@@QEAA@AEBV?$basic_string@DU?$char_traits@D@std@@V?$allocator@D@2@@1@@Z DD 020601H
	DD	030025206H
xdata	ENDS
;	COMDAT xdata
xdata	SEGMENT
$unwind$??_Gbad_cast@std@@UEAAPEAXI@Z DD 040a01H
	DD	06340aH
	DD	07006320aH
xdata	ENDS
;	COMDAT xdata
xdata	SEGMENT
$ip2state$??0_Locinfo@std@@QEAA@PEBD@Z DD imagerel ??0_Locinfo@std@@QEAA@PEBD@Z+32
	DD	0ffffffffH
	DD	imagerel ??0_Locinfo@std@@QEAA@PEBD@Z+95
	DD	06H
xdata	ENDS
;	COMDAT xdata
xdata	SEGMENT
$stateUnwindMap$??0_Locinfo@std@@QEAA@PEBD@Z DD 0ffffffffH
	DD	imagerel ?dtor$0@?0???0_Locinfo@std@@QEAA@PEBD@Z@4HA
	DD	00H
	DD	imagerel ?dtor$1@?0???0_Locinfo@std@@QEAA@PEBD@Z@4HA
	DD	01H
	DD	imagerel ?dtor$2@?0???0_Locinfo@std@@QEAA@PEBD@Z@4HA
	DD	02H
	DD	imagerel ?dtor$3@?0???0_Locinfo@std@@QEAA@PEBD@Z@4HA
	DD	03H
	DD	imagerel ?dtor$4@?0???0_Locinfo@std@@QEAA@PEBD@Z@4HA
	DD	04H
	DD	imagerel ?dtor$5@?0???0_Locinfo@std@@QEAA@PEBD@Z@4HA
	DD	05H
	DD	imagerel ?dtor$6@?0???0_Locinfo@std@@QEAA@PEBD@Z@4HA
xdata	ENDS
;	COMDAT CONST
CONST	SEGMENT
$cppxdata$??0_Locinfo@std@@QEAA@PEBD@Z DQ 00000000719930522r ; 1.5066e-313
	DD	imagerel $stateUnwindMap$??0_Locinfo@std@@QEAA@PEBD@Z
	DQ	00000000000000000r		; 0
	DD	02H
	DD	imagerel $ip2state$??0_Locinfo@std@@QEAA@PEBD@Z
	DQ	00000000000000020r		; 1.58101e-322
	DD	01H
CONST	ENDS
;	COMDAT xdata
xdata	SEGMENT
$unwind$??0_Locinfo@std@@QEAA@PEBD@Z DD 041811H
	DD	0b3418H
	DD	07006720aH
	DD	imagerel __CxxFrameHandler3
	DD	imagerel $cppxdata$??0_Locinfo@std@@QEAA@PEBD@Z
xdata	ENDS
;	COMDAT xdata
xdata	SEGMENT
$ip2state$??1_Locinfo@std@@QEAA@XZ DD imagerel ??1_Locinfo@std@@QEAA@XZ+23
	DD	0ffffffffH
xdata	ENDS
;	COMDAT CONST
CONST	SEGMENT
$cppxdata$??1_Locinfo@std@@QEAA@XZ DQ 00000000019930522r ; 2.11987e-315
	DQ	00000000000000000r		; 0
	DQ	00000000100000000r		; 2.122e-314
	DD	imagerel $ip2state$??1_Locinfo@std@@QEAA@XZ
	DQ	00000000000000020r		; 1.58101e-322
	DD	05H
CONST	ENDS
;	COMDAT xdata
xdata	SEGMENT
$unwind$??1_Locinfo@std@@QEAA@XZ DD 041419H
	DD	083414H
	DD	070025206H
	DD	imagerel __CxxFrameHandler3
	DD	imagerel $cppxdata$??1_Locinfo@std@@QEAA@XZ
xdata	ENDS
;	COMDAT xdata
xdata	SEGMENT
$unwind$?_Getctype@_Locinfo@std@@QEBA?AU_Ctypevec@@XZ DD 020601H
	DD	030027206H
xdata	ENDS
;	COMDAT xdata
xdata	SEGMENT
$unwind$??_G_Facet_base@std@@UEAAPEAXI@Z DD 020601H
	DD	030023206H
xdata	ENDS
;	COMDAT xdata
xdata	SEGMENT
$unwind$??Bid@locale@std@@QEAA_KXZ DD 020601H
	DD	030023206H
xdata	ENDS
;	COMDAT xdata
xdata	SEGMENT
$ip2state$??0locale@std@@QEAA@AEBV01@@Z DD imagerel ??0locale@std@@QEAA@AEBV01@@Z+29
	DD	0ffffffffH
xdata	ENDS
;	COMDAT CONST
CONST	SEGMENT
$cppxdata$??0locale@std@@QEAA@AEBV01@@Z DQ 00000000019930522r ; 2.11987e-315
	DQ	00000000000000000r		; 0
	DQ	00000000100000000r		; 2.122e-314
	DD	imagerel $ip2state$??0locale@std@@QEAA@AEBV01@@Z
	DQ	00000000000000020r		; 1.58101e-322
	DD	05H
CONST	ENDS
;	COMDAT xdata
xdata	SEGMENT
$unwind$??0locale@std@@QEAA@AEBV01@@Z DD 020f19H
	DD	030025206H
	DD	imagerel __CxxFrameHandler3
	DD	imagerel $cppxdata$??0locale@std@@QEAA@AEBV01@@Z
xdata	ENDS
;	COMDAT xdata
xdata	SEGMENT
$ip2state$??1locale@std@@QEAA@XZ DD imagerel ??1locale@std@@QEAA@XZ+25
	DD	0ffffffffH
xdata	ENDS
;	COMDAT CONST
CONST	SEGMENT
$cppxdata$??1locale@std@@QEAA@XZ DQ 00000000019930522r ; 2.11987e-315
	DQ	00000000000000000r		; 0
	DQ	00000000100000000r		; 2.122e-314
	DD	imagerel $ip2state$??1locale@std@@QEAA@XZ
	DQ	00000000000000020r		; 1.58101e-322
	DD	05H
CONST	ENDS
;	COMDAT xdata
xdata	SEGMENT
$unwind$??1locale@std@@QEAA@XZ DD 010d19H
	DD	06204H
	DD	imagerel __CxxFrameHandler3
	DD	imagerel $cppxdata$??1locale@std@@QEAA@XZ
xdata	ENDS
;	COMDAT xdata
xdata	SEGMENT
$unwind$?_Getfacet@locale@std@@QEBAPEBVfacet@12@_K@Z DD 040a01H
	DD	06340aH
	DD	07006320aH
xdata	ENDS
;	COMDAT xdata
xdata	SEGMENT
$unwind$??_Gfacet@locale@std@@MEAAPEAXI@Z DD 020601H
	DD	030023206H
xdata	ENDS
;	COMDAT xdata
xdata	SEGMENT
$unwind$??_Gctype_base@std@@UEAAPEAXI@Z DD 020601H
	DD	030023206H
xdata	ENDS
;	COMDAT xdata
xdata	SEGMENT
$unwind$??0?$ctype@D@std@@QEAA@AEBV_Locinfo@1@_K@Z DD 020601H
	DD	030027206H
xdata	ENDS
;	COMDAT xdata
xdata	SEGMENT
$unwind$?dtor$0@?0??_Getcat@?$ctype@D@std@@SA_KPEAPEBVfacet@locale@2@PEBV42@@Z@4HA DD 020601H
	DD	050023206H
xdata	ENDS
;	COMDAT xdata
xdata	SEGMENT
$ip2state$?_Getcat@?$ctype@D@std@@SA_KPEAPEBVfacet@locale@2@PEBV42@@Z DD imagerel ?_Getcat@?$ctype@D@std@@SA_KPEAPEBVfacet@locale@2@PEBV42@@Z+50
	DD	0ffffffffH
	DD	imagerel ?_Getcat@?$ctype@D@std@@SA_KPEAPEBVfacet@locale@2@PEBV42@@Z+102
	DD	00H
xdata	ENDS
;	COMDAT xdata
xdata	SEGMENT
$stateUnwindMap$?_Getcat@?$ctype@D@std@@SA_KPEAPEBVfacet@locale@2@PEBV42@@Z DD 0ffffffffH
	DD	imagerel ?dtor$0@?0??_Getcat@?$ctype@D@std@@SA_KPEAPEBVfacet@locale@2@PEBV42@@Z@4HA
xdata	ENDS
;	COMDAT CONST
CONST	SEGMENT
$cppxdata$?_Getcat@?$ctype@D@std@@SA_KPEAPEBVfacet@locale@2@PEBV42@@Z DQ 00000000119930522r ; 2.33398e-314
	DD	imagerel $stateUnwindMap$?_Getcat@?$ctype@D@std@@SA_KPEAPEBVfacet@locale@2@PEBV42@@Z
	DQ	00000000000000000r		; 0
	DD	02H
	DD	imagerel $ip2state$?_Getcat@?$ctype@D@std@@SA_KPEAPEBVfacet@locale@2@PEBV42@@Z
	DQ	00000000000000020r		; 1.58101e-322
	DD	01H
CONST	ENDS
;	COMDAT xdata
xdata	SEGMENT
$unwind$?_Getcat@?$ctype@D@std@@SA_KPEAPEBVfacet@locale@2@PEBV42@@Z DD 071c11H
	DD	01a641cH
	DD	0193418H
	DD	016010bH
	DD	07004H
	DD	imagerel __CxxFrameHandler3
	DD	imagerel $cppxdata$?_Getcat@?$ctype@D@std@@SA_KPEAPEBVfacet@locale@2@PEBV42@@Z
xdata	ENDS
;	COMDAT xdata
xdata	SEGMENT
$unwind$??1?$ctype@D@std@@MEAA@XZ DD 020601H
	DD	030023206H
xdata	ENDS
;	COMDAT xdata
xdata	SEGMENT
$unwind$?_Init@?$ctype@D@std@@IEAAXAEBV_Locinfo@2@@Z DD 020601H
	DD	030027206H
xdata	ENDS
;	COMDAT xdata
xdata	SEGMENT
$unwind$?_Tidy@?$ctype@D@std@@IEAAXXZ DD 020601H
	DD	030023206H
xdata	ENDS
;	COMDAT xdata
xdata	SEGMENT
$chain$1$?do_tolower@?$ctype@D@std@@MEBAPEBDPEADPEBD@Z DD 021H
	DD	imagerel $LN12@do_tolower
	DD	imagerel $LN12@do_tolower+38
	DD	imagerel $unwind$?do_tolower@?$ctype@D@std@@MEBAPEBDPEADPEBD@Z
xdata	ENDS
;	COMDAT xdata
xdata	SEGMENT
$chain$0$?do_tolower@?$ctype@D@std@@MEBAPEBDPEADPEBD@Z DD 020521H
	DD	065405H
	DD	imagerel $LN12@do_tolower
	DD	imagerel $LN12@do_tolower+38
	DD	imagerel $unwind$?do_tolower@?$ctype@D@std@@MEBAPEBDPEADPEBD@Z
xdata	ENDS
;	COMDAT xdata
xdata	SEGMENT
$unwind$?do_tolower@?$ctype@D@std@@MEBAPEBDPEADPEBD@Z DD 060f01H
	DD	08640fH
	DD	07340fH
	DD	0700b320fH
xdata	ENDS
;	COMDAT xdata
xdata	SEGMENT
$chain$1$?do_toupper@?$ctype@D@std@@MEBAPEBDPEADPEBD@Z DD 021H
	DD	imagerel $LN12@do_toupper
	DD	imagerel $LN12@do_toupper+38
	DD	imagerel $unwind$?do_toupper@?$ctype@D@std@@MEBAPEBDPEADPEBD@Z
xdata	ENDS
;	COMDAT xdata
xdata	SEGMENT
$chain$0$?do_toupper@?$ctype@D@std@@MEBAPEBDPEADPEBD@Z DD 020521H
	DD	065405H
	DD	imagerel $LN12@do_toupper
	DD	imagerel $LN12@do_toupper+38
	DD	imagerel $unwind$?do_toupper@?$ctype@D@std@@MEBAPEBDPEADPEBD@Z
xdata	ENDS
;	COMDAT xdata
xdata	SEGMENT
$unwind$?do_toupper@?$ctype@D@std@@MEBAPEBDPEADPEBD@Z DD 060f01H
	DD	08640fH
	DD	07340fH
	DD	0700b320fH
xdata	ENDS
;	COMDAT xdata
xdata	SEGMENT
$unwind$?do_widen@?$ctype@D@std@@MEBAPEBDPEBD0PEAD@Z DD 020601H
	DD	030023206H
xdata	ENDS
;	COMDAT xdata
xdata	SEGMENT
$unwind$?do_narrow@?$ctype@D@std@@MEBAPEBDPEBD0DPEAD@Z DD 020601H
	DD	030023206H
xdata	ENDS
;	COMDAT xdata
xdata	SEGMENT
$unwind$??_G?$ctype@D@std@@MEAAPEAXI@Z DD 040a01H
	DD	06340aH
	DD	07006320aH
xdata	ENDS
;	COMDAT xdata
xdata	SEGMENT
$unwind$??_Gerror_category@std@@UEAAPEAXI@Z DD 020601H
	DD	030023206H
xdata	ENDS
;	COMDAT xdata
xdata	SEGMENT
$unwind$?message@error_code@std@@QEBA?AV?$basic_string@DU?$char_traits@D@std@@V?$allocator@D@2@@2@XZ DD 020601H
	DD	030023206H
xdata	ENDS
;	COMDAT xdata
xdata	SEGMENT
$unwind$?equivalent@error_category@std@@UEBA_NHAEBVerror_condition@2@@Z DD 020601H
	DD	030025206H
xdata	ENDS
;	COMDAT xdata
xdata	SEGMENT
$unwind$?make_error_code@std@@YA?AVerror_code@1@W4io_errc@1@@Z DD 040a01H
	DD	06340aH
	DD	07006320aH
xdata	ENDS
;	COMDAT xdata
xdata	SEGMENT
$ip2state$?_Makestr@_System_error@std@@CA?AV?$basic_string@DU?$char_traits@D@std@@V?$allocator@D@2@@2@Verror_code@2@V32@@Z DD imagerel ?_Makestr@_System_error@std@@CA?AV?$basic_string@DU?$char_traits@D@std@@V?$allocator@D@2@@2@Verror_code@2@V32@@Z+68
	DD	00H
	DD	imagerel ?_Makestr@_System_error@std@@CA?AV?$basic_string@DU?$char_traits@D@std@@V?$allocator@D@2@@2@Verror_code@2@V32@@Z+87
	DD	01H
	DD	imagerel ?_Makestr@_System_error@std@@CA?AV?$basic_string@DU?$char_traits@D@std@@V?$allocator@D@2@@2@Verror_code@2@V32@@Z+109
	DD	00H
	DD	imagerel ?_Makestr@_System_error@std@@CA?AV?$basic_string@DU?$char_traits@D@std@@V?$allocator@D@2@@2@Verror_code@2@V32@@Z+226
	DD	0ffffffffH
xdata	ENDS
;	COMDAT xdata
xdata	SEGMENT
$stateUnwindMap$?_Makestr@_System_error@std@@CA?AV?$basic_string@DU?$char_traits@D@std@@V?$allocator@D@2@@2@Verror_code@2@V32@@Z DD 0ffffffffH
	DD	imagerel ?dtor$0@?0??_Makestr@_System_error@std@@CA?AV?$basic_string@DU?$char_traits@D@std@@V?$allocator@D@2@@2@Verror_code@2@V32@@Z@4HA
	DD	00H
	DD	imagerel ?dtor$1@?0??_Makestr@_System_error@std@@CA?AV?$basic_string@DU?$char_traits@D@std@@V?$allocator@D@2@@2@Verror_code@2@V32@@Z@4HA
xdata	ENDS
;	COMDAT CONST
CONST	SEGMENT
$cppxdata$?_Makestr@_System_error@std@@CA?AV?$basic_string@DU?$char_traits@D@std@@V?$allocator@D@2@@2@Verror_code@2@V32@@Z DQ 00000000219930522r ; 4.45598e-314
	DD	imagerel $stateUnwindMap$?_Makestr@_System_error@std@@CA?AV?$basic_string@DU?$char_traits@D@std@@V?$allocator@D@2@@2@Verror_code@2@V32@@Z
	DQ	00000000000000000r		; 0
	DD	04H
	DD	imagerel $ip2state$?_Makestr@_System_error@std@@CA?AV?$basic_string@DU?$char_traits@D@std@@V?$allocator@D@2@@2@Verror_code@2@V32@@Z
	DQ	00000000000000020r		; 1.58101e-322
	DD	01H
CONST	ENDS
;	COMDAT xdata
xdata	SEGMENT
$unwind$?_Makestr@_System_error@std@@CA?AV?$basic_string@DU?$char_traits@D@std@@V?$allocator@D@2@@2@Verror_code@2@V32@@Z DD 042019H
	DD	07004b208H
	DD	030026003H
	DD	imagerel __GSHandlerCheck_EH
	DD	imagerel $cppxdata$?_Makestr@_System_error@std@@CA?AV?$basic_string@DU?$char_traits@D@std@@V?$allocator@D@2@@2@Verror_code@2@V32@@Z
	DD	052H
xdata	ENDS
;	COMDAT xdata
xdata	SEGMENT
$unwind$??0_System_error@std@@IEAA@Verror_code@1@AEBV?$basic_string@DU?$char_traits@D@std@@V?$allocator@D@2@@1@@Z DD 041c19H
	DD	015340dH
	DD	07006f20dH
	DD	imagerel __GSHandlerCheck
	DD	070H
xdata	ENDS
;	COMDAT xdata
xdata	SEGMENT
$unwind$??_G_System_error@std@@UEAAPEAXI@Z DD 040a01H
	DD	06340aH
	DD	07006320aH
xdata	ENDS
;	COMDAT xdata
xdata	SEGMENT
$ip2state$??0system_error@std@@QEAA@Verror_code@1@PEBD@Z DD imagerel ??0system_error@std@@QEAA@Verror_code@1@PEBD@Z+117
	DD	0ffffffffH
	DD	imagerel ??0system_error@std@@QEAA@Verror_code@1@PEBD@Z+169
	DD	00H
	DD	imagerel ??0system_error@std@@QEAA@Verror_code@1@PEBD@Z+363
	DD	0ffffffffH
	DD	imagerel ??0system_error@std@@QEAA@Verror_code@1@PEBD@Z+490
	DD	00H
xdata	ENDS
;	COMDAT xdata
xdata	SEGMENT
$stateUnwindMap$??0system_error@std@@QEAA@Verror_code@1@PEBD@Z DD 0ffffffffH
	DD	imagerel ?dtor$0@?0???0system_error@std@@QEAA@Verror_code@1@PEBD@Z@4HA
xdata	ENDS
;	COMDAT CONST
CONST	SEGMENT
$cppxdata$??0system_error@std@@QEAA@Verror_code@1@PEBD@Z DQ 00000000119930522r ; 2.33398e-314
	DD	imagerel $stateUnwindMap$??0system_error@std@@QEAA@Verror_code@1@PEBD@Z
	DQ	00000000000000000r		; 0
	DD	04H
	DD	imagerel $ip2state$??0system_error@std@@QEAA@Verror_code@1@PEBD@Z
	DQ	00000000000000050r		; 3.95253e-322
	DD	01H
CONST	ENDS
;	COMDAT xdata
xdata	SEGMENT
$unwind$??0system_error@std@@QEAA@Verror_code@1@PEBD@Z DD 072e19H
	DD	0a681cH
	DD	01b3417H
	DD	016010bH
	DD	07004H
	DD	imagerel __GSHandlerCheck_EH
	DD	imagerel $cppxdata$??0system_error@std@@QEAA@Verror_code@1@PEBD@Z
	DD	09aH
xdata	ENDS
;	COMDAT xdata
xdata	SEGMENT
$unwind$??_Gsystem_error@std@@UEAAPEAXI@Z DD 040a01H
	DD	06340aH
	DD	07006320aH
xdata	ENDS
;	COMDAT xdata
xdata	SEGMENT
$unwind$?message@_Generic_error_category@std@@UEBA?AV?$basic_string@DU?$char_traits@D@std@@V?$allocator@D@2@@2@H@Z DD 020601H
	DD	030023206H
xdata	ENDS
;	COMDAT xdata
xdata	SEGMENT
$unwind$??_G_Generic_error_category@std@@UEAAPEAXI@Z DD 020601H
	DD	030023206H
xdata	ENDS
;	COMDAT xdata
xdata	SEGMENT
$unwind$?message@_Iostream_error_category@std@@UEBA?AV?$basic_string@DU?$char_traits@D@std@@V?$allocator@D@2@@2@H@Z DD 020601H
	DD	030023206H
xdata	ENDS
;	COMDAT xdata
xdata	SEGMENT
$unwind$??_G_Iostream_error_category@std@@UEAAPEAXI@Z DD 020601H
	DD	030023206H
xdata	ENDS
;	COMDAT xdata
xdata	SEGMENT
$unwind$?iostream_category@std@@YAAEBVerror_category@1@XZ DD 010401H
	DD	04204H
xdata	ENDS
;	COMDAT xdata
xdata	SEGMENT
$unwind$??0failure@ios_base@std@@QEAA@PEBDAEBVerror_code@2@@Z DD 020601H
	DD	030025206H
xdata	ENDS
;	COMDAT xdata
xdata	SEGMENT
$unwind$?clear@ios_base@std@@QEAAXH_N@Z DD 010401H
	DD	0c204H
xdata	ENDS
;	COMDAT xdata
xdata	SEGMENT
$ip2state$?getloc@ios_base@std@@QEBA?AVlocale@2@XZ DD imagerel ?getloc@ios_base@std@@QEBA?AVlocale@2@XZ+33
	DD	00H
xdata	ENDS
;	COMDAT xdata
xdata	SEGMENT
$stateUnwindMap$?getloc@ios_base@std@@QEBA?AVlocale@2@XZ DD 0ffffffffH
	DD	imagerel __std_terminate
xdata	ENDS
;	COMDAT CONST
CONST	SEGMENT
$cppxdata$?getloc@ios_base@std@@QEBA?AVlocale@2@XZ DQ 00000000119930522r ; 2.33398e-314
	DD	imagerel $stateUnwindMap$?getloc@ios_base@std@@QEBA?AVlocale@2@XZ
	DQ	00000000000000000r		; 0
	DD	01H
	DD	imagerel $ip2state$?getloc@ios_base@std@@QEBA?AVlocale@2@XZ
	DQ	00000000000000020r		; 1.58101e-322
	DD	01H
CONST	ENDS
;	COMDAT xdata
xdata	SEGMENT
$unwind$?getloc@ios_base@std@@QEBA?AVlocale@2@XZ DD 020f11H
	DD	030025206H
	DD	imagerel __CxxFrameHandler3
	DD	imagerel $cppxdata$?getloc@ios_base@std@@QEBA?AVlocale@2@XZ
xdata	ENDS
;	COMDAT xdata
xdata	SEGMENT
$unwind$??_Gfailure@ios_base@std@@UEAAPEAXI@Z DD 040a01H
	DD	06340aH
	DD	07006320aH
xdata	ENDS
;	COMDAT xdata
xdata	SEGMENT
$unwind$??0failure@ios_base@std@@QEAA@AEBV012@@Z DD 040a01H
	DD	06340aH
	DD	07006320aH
xdata	ENDS
;	COMDAT xdata
xdata	SEGMENT
$unwind$??0system_error@std@@QEAA@AEBV01@@Z DD 040a01H
	DD	06340aH
	DD	07006320aH
xdata	ENDS
;	COMDAT xdata
xdata	SEGMENT
$unwind$??0_System_error@std@@QEAA@AEBV01@@Z DD 040a01H
	DD	06340aH
	DD	07006320aH
xdata	ENDS
;	COMDAT xdata
xdata	SEGMENT
$unwind$?dtor$0@?0??codePointToUTF8@Json@@YA?AV?$basic_string@DU?$char_traits@D@std@@V?$allocator@D@2@@std@@I@Z@4HA DD 020601H
	DD	050023206H
xdata	ENDS
;	COMDAT xdata
xdata	SEGMENT
$ip2state$?codePointToUTF8@Json@@YA?AV?$basic_string@DU?$char_traits@D@std@@V?$allocator@D@2@@std@@I@Z DD imagerel ?codePointToUTF8@Json@@YA?AV?$basic_string@DU?$char_traits@D@std@@V?$allocator@D@2@@std@@I@Z+123
	DD	00H
xdata	ENDS
;	COMDAT xdata
xdata	SEGMENT
$stateUnwindMap$?codePointToUTF8@Json@@YA?AV?$basic_string@DU?$char_traits@D@std@@V?$allocator@D@2@@std@@I@Z DD 0ffffffffH
	DD	imagerel ?dtor$0@?0??codePointToUTF8@Json@@YA?AV?$basic_string@DU?$char_traits@D@std@@V?$allocator@D@2@@std@@I@Z@4HA
xdata	ENDS
;	COMDAT CONST
CONST	SEGMENT
$cppxdata$?codePointToUTF8@Json@@YA?AV?$basic_string@DU?$char_traits@D@std@@V?$allocator@D@2@@std@@I@Z DQ 00000000119930522r ; 2.33398e-314
	DD	imagerel $stateUnwindMap$?codePointToUTF8@Json@@YA?AV?$basic_string@DU?$char_traits@D@std@@V?$allocator@D@2@@std@@I@Z
	DQ	00000000000000000r		; 0
	DD	01H
	DD	imagerel $ip2state$?codePointToUTF8@Json@@YA?AV?$basic_string@DU?$char_traits@D@std@@V?$allocator@D@2@@std@@I@Z
	DQ	00000000000000028r		; 1.97626e-322
	DD	01H
CONST	ENDS
;	COMDAT xdata
xdata	SEGMENT
$unwind$?codePointToUTF8@Json@@YA?AV?$basic_string@DU?$char_traits@D@std@@V?$allocator@D@2@@std@@I@Z DD 041811H
	DD	093418H
	DD	07006520aH
	DD	imagerel __CxxFrameHandler3
	DD	imagerel $cppxdata$?codePointToUTF8@Json@@YA?AV?$basic_string@DU?$char_traits@D@std@@V?$allocator@D@2@@std@@I@Z
xdata	ENDS
;	COMDAT xdata
xdata	SEGMENT
$ip2state$??0Reader@Json@@QEAA@XZ DD imagerel ??0Reader@Json@@QEAA@XZ+56
	DD	0ffffffffH
	DD	imagerel ??0Reader@Json@@QEAA@XZ+107
	DD	00H
xdata	ENDS
;	COMDAT xdata
xdata	SEGMENT
$stateUnwindMap$??0Reader@Json@@QEAA@XZ DD 0ffffffffH
	DD	imagerel ?dtor$0@?0???0Reader@Json@@QEAA@XZ@4HA
xdata	ENDS
;	COMDAT CONST
CONST	SEGMENT
$cppxdata$??0Reader@Json@@QEAA@XZ DQ 00000000119930522r ; 2.33398e-314
	DD	imagerel $stateUnwindMap$??0Reader@Json@@QEAA@XZ
	DQ	00000000000000000r		; 0
	DD	02H
	DD	imagerel $ip2state$??0Reader@Json@@QEAA@XZ
	DQ	00000000000000020r		; 1.58101e-322
	DD	01H
CONST	ENDS
;	COMDAT xdata
xdata	SEGMENT
$unwind$??0Reader@Json@@QEAA@XZ DD 061d11H
	DD	0b641dH
	DD	0a3418H
	DD	07006520aH
	DD	imagerel __CxxFrameHandler3
	DD	imagerel $cppxdata$??0Reader@Json@@QEAA@XZ
xdata	ENDS
;	COMDAT xdata
xdata	SEGMENT
$unwind$??1?$stack@PEAVValue@Json@@V?$deque@PEAVValue@Json@@V?$allocator@PEAVValue@Json@@@std@@@std@@@std@@QEAA@XZ DD 060f01H
	DD	07640fH
	DD	06340fH
	DD	0700b320fH
xdata	ENDS
;	COMDAT xdata
xdata	SEGMENT
$unwind$?parse@Reader@Json@@QEAA_NAEBV?$basic_string@DU?$char_traits@D@std@@V?$allocator@D@2@@std@@AEAVValue@2@_N@Z DD 081401H
	DD	0a6414H
	DD	095414H
	DD	083414H
	DD	070105214H
xdata	ENDS
;	COMDAT xdata
xdata	SEGMENT
$ip2state$?parse@Reader@Json@@QEAA_NPEBD0AEAVValue@2@_N@Z DD imagerel ?parse@Reader@Json@@QEAA_NPEBD0AEAVValue@2@_N@Z+126
	DD	0ffffffffH
	DD	imagerel ?parse@Reader@Json@@QEAA_NPEBD0AEAVValue@2@_N@Z+378
	DD	00H
	DD	imagerel ?parse@Reader@Json@@QEAA_NPEBD0AEAVValue@2@_N@Z+400
	DD	0ffffffffH
xdata	ENDS
;	COMDAT xdata
xdata	SEGMENT
$stateUnwindMap$?parse@Reader@Json@@QEAA_NPEBD0AEAVValue@2@_N@Z DD 0ffffffffH
	DD	imagerel ?dtor$0@?0??parse@Reader@Json@@QEAA_NPEBD0AEAVValue@2@_N@Z@4HA
xdata	ENDS
;	COMDAT CONST
CONST	SEGMENT
$cppxdata$?parse@Reader@Json@@QEAA_NPEBD0AEAVValue@2@_N@Z DQ 00000000119930522r ; 2.33398e-314
	DD	imagerel $stateUnwindMap$?parse@Reader@Json@@QEAA_NPEBD0AEAVValue@2@_N@Z
	DQ	00000000000000000r		; 0
	DD	03H
	DD	imagerel $ip2state$?parse@Reader@Json@@QEAA_NPEBD0AEAVValue@2@_N@Z
	DQ	00000000000000040r		; 3.16202e-322
	DD	01H
CONST	ENDS
;	COMDAT xdata
xdata	SEGMENT
$unwind$?parse@Reader@Json@@QEAA_NPEBD0AEAVValue@2@_N@Z DD 082719H
	DD	0f00bd20fH
	DD	0c007e009H
	DD	060047005H
	DD	030025003H
	DD	imagerel __GSHandlerCheck_EH
	DD	imagerel $cppxdata$?parse@Reader@Json@@QEAA_NPEBD0AEAVValue@2@_N@Z
	DD	06aH
xdata	ENDS
;	COMDAT xdata
xdata	SEGMENT
$ip2state$?readValue@Reader@Json@@AEAA_NXZ DD imagerel ?readValue@Reader@Json@@AEAA_NXZ+72
	DD	0ffffffffH
	DD	imagerel ?readValue@Reader@Json@@AEAA_NXZ+265
	DD	00H
	DD	imagerel ?readValue@Reader@Json@@AEAA_NXZ+270
	DD	0ffffffffH
	DD	imagerel ?readValue@Reader@Json@@AEAA_NXZ+365
	DD	00H
	DD	imagerel ?readValue@Reader@Json@@AEAA_NXZ+543
	DD	0ffffffffH
	DD	imagerel ?readValue@Reader@Json@@AEAA_NXZ+651
	DD	01H
	DD	imagerel ?readValue@Reader@Json@@AEAA_NXZ+841
	DD	03H
	DD	imagerel ?readValue@Reader@Json@@AEAA_NXZ+998
	DD	0ffffffffH
	DD	imagerel ?readValue@Reader@Json@@AEAA_NXZ+1018
	DD	04H
	DD	imagerel ?readValue@Reader@Json@@AEAA_NXZ+1102
	DD	0ffffffffH
xdata	ENDS
;	COMDAT xdata
xdata	SEGMENT
$stateUnwindMap$?readValue@Reader@Json@@AEAA_NXZ DD 0ffffffffH
	DD	imagerel ?dtor$0@?0??readValue@Reader@Json@@AEAA_NXZ@4HA
	DD	0ffffffffH
	DD	imagerel ?dtor$1@?0??readValue@Reader@Json@@AEAA_NXZ@4HA
	DD	0ffffffffH
	DD	00H
	DD	0ffffffffH
	DD	imagerel ?dtor$2@?0??readValue@Reader@Json@@AEAA_NXZ@4HA
	DD	0ffffffffH
	DD	imagerel ?dtor$3@?0??readValue@Reader@Json@@AEAA_NXZ@4HA
xdata	ENDS
;	COMDAT CONST
CONST	SEGMENT
$cppxdata$?readValue@Reader@Json@@AEAA_NXZ DQ 00000000519930522r ; 1.0822e-313
	DD	imagerel $stateUnwindMap$?readValue@Reader@Json@@AEAA_NXZ
	DQ	00000000000000000r		; 0
	DD	0aH
	DD	imagerel $ip2state$?readValue@Reader@Json@@AEAA_NXZ
	DQ	00000000000000068r		; 5.13828e-322
	DD	01H
CONST	ENDS
;	COMDAT xdata
xdata	SEGMENT
$unwind$?readValue@Reader@Json@@AEAA_NXZ DD 0b3519H
	DD	01b7427H
	DD	01a6423H
	DD	019341fH
	DD	0140113H
	DD	0e006f008H
	DD	05004H
	DD	imagerel __GSHandlerCheck_EH
	DD	imagerel $cppxdata$?readValue@Reader@Json@@AEAA_NXZ
	DD	092H
xdata	ENDS
;	COMDAT xdata
xdata	SEGMENT
$unwind$?skipCommentTokens@Reader@Json@@AEAAXAEAVToken@12@@Z DD 040a01H
	DD	06340aH
	DD	07006320aH
xdata	ENDS
;	COMDAT xdata
xdata	SEGMENT
$unwind$?readToken@Reader@Json@@AEAA_NAEAVToken@12@@Z DD 040a01H
	DD	06340aH
	DD	07006320aH
xdata	ENDS
;	COMDAT xdata
xdata	SEGMENT
$unwind$?match@Reader@Json@@AEAA_NPEBDH@Z DD 020501H
	DD	013405H
xdata	ENDS
;	COMDAT xdata
xdata	SEGMENT
$unwind$?readComment@Reader@Json@@AEAA_NXZ DD 020601H
	DD	030023206H
xdata	ENDS
;	COMDAT xdata
xdata	SEGMENT
$ip2state$?addComment@Reader@Json@@AEAAXPEBD0W4CommentPlacement@2@@Z DD imagerel ?addComment@Reader@Json@@AEAAXPEBD0W4CommentPlacement@2@@Z+90
	DD	0ffffffffH
	DD	imagerel ?addComment@Reader@Json@@AEAAXPEBD0W4CommentPlacement@2@@Z+114
	DD	00H
	DD	imagerel ?addComment@Reader@Json@@AEAAXPEBD0W4CommentPlacement@2@@Z+232
	DD	0ffffffffH
	DD	imagerel ?addComment@Reader@Json@@AEAAXPEBD0W4CommentPlacement@2@@Z+285
	DD	01H
	DD	imagerel ?addComment@Reader@Json@@AEAAXPEBD0W4CommentPlacement@2@@Z+313
	DD	0ffffffffH
xdata	ENDS
;	COMDAT xdata
xdata	SEGMENT
$stateUnwindMap$?addComment@Reader@Json@@AEAAXPEBD0W4CommentPlacement@2@@Z DD 0ffffffffH
	DD	imagerel ?dtor$0@?0??addComment@Reader@Json@@AEAAXPEBD0W4CommentPlacement@2@@Z@4HA
	DD	0ffffffffH
	DD	imagerel ?dtor$1@?0??addComment@Reader@Json@@AEAAXPEBD0W4CommentPlacement@2@@Z@4HA
xdata	ENDS
;	COMDAT CONST
CONST	SEGMENT
$cppxdata$?addComment@Reader@Json@@AEAAXPEBD0W4CommentPlacement@2@@Z DQ 00000000219930522r ; 4.45598e-314
	DD	imagerel $stateUnwindMap$?addComment@Reader@Json@@AEAAXPEBD0W4CommentPlacement@2@@Z
	DQ	00000000000000000r		; 0
	DD	05H
	DD	imagerel $ip2state$?addComment@Reader@Json@@AEAAXPEBD0W4CommentPlacement@2@@Z
	DQ	00000000000000020r		; 1.58101e-322
	DD	01H
CONST	ENDS
;	COMDAT xdata
xdata	SEGMENT
$unwind$?addComment@Reader@Json@@AEAAXPEBD0W4CommentPlacement@2@@Z DD 042019H
	DD	070049208H
	DD	030026003H
	DD	imagerel __GSHandlerCheck_EH
	DD	imagerel $cppxdata$?addComment@Reader@Json@@AEAAXPEBD0W4CommentPlacement@2@@Z
	DD	04aH
xdata	ENDS
;	COMDAT xdata
xdata	SEGMENT
$unwind$?dtor$6@?0??readObject@Reader@Json@@AEAA_NAEAVToken@12@@Z@4HA DD 020601H
	DD	050023206H
xdata	ENDS
;	COMDAT xdata
xdata	SEGMENT
$ip2state$?readObject@Reader@Json@@AEAA_NAEAVToken@12@@Z DD imagerel ?readObject@Reader@Json@@AEAA_NAEAVToken@12@@Z+97
	DD	00H
	DD	imagerel ?readObject@Reader@Json@@AEAA_NAEAVToken@12@@Z+116
	DD	01H
	DD	imagerel ?readObject@Reader@Json@@AEAA_NAEAVToken@12@@Z+209
	DD	02H
	DD	imagerel ?readObject@Reader@Json@@AEAA_NAEAVToken@12@@Z+322
	DD	00H
	DD	imagerel ?readObject@Reader@Json@@AEAA_NAEAVToken@12@@Z+863
	DD	04H
	DD	imagerel ?readObject@Reader@Json@@AEAA_NAEAVToken@12@@Z+948
	DD	00H
	DD	imagerel ?readObject@Reader@Json@@AEAA_NAEAVToken@12@@Z+1095
	DD	03H
	DD	imagerel ?readObject@Reader@Json@@AEAA_NAEAVToken@12@@Z+1174
	DD	00H
	DD	imagerel ?readObject@Reader@Json@@AEAA_NAEAVToken@12@@Z+1313
	DD	05H
	DD	imagerel ?readObject@Reader@Json@@AEAA_NAEAVToken@12@@Z+1396
	DD	00H
	DD	imagerel ?readObject@Reader@Json@@AEAA_NAEAVToken@12@@Z+1580
	DD	0ffffffffH
xdata	ENDS
;	COMDAT xdata
xdata	SEGMENT
$stateUnwindMap$?readObject@Reader@Json@@AEAA_NAEAVToken@12@@Z DD 0ffffffffH
	DD	imagerel ?dtor$0@?0??readObject@Reader@Json@@AEAA_NAEAVToken@12@@Z@4HA
	DD	00H
	DD	imagerel ?dtor$6@?0??readObject@Reader@Json@@AEAA_NAEAVToken@12@@Z@4HA
	DD	00H
	DD	imagerel ?dtor$1@?0??readObject@Reader@Json@@AEAA_NAEAVToken@12@@Z@4HA
	DD	00H
	DD	imagerel ?dtor$2@?0??readObject@Reader@Json@@AEAA_NAEAVToken@12@@Z@4HA
	DD	00H
	DD	imagerel ?dtor$3@?0??readObject@Reader@Json@@AEAA_NAEAVToken@12@@Z@4HA
	DD	00H
	DD	imagerel ?dtor$4@?0??readObject@Reader@Json@@AEAA_NAEAVToken@12@@Z@4HA
xdata	ENDS
;	COMDAT CONST
CONST	SEGMENT
$cppxdata$?readObject@Reader@Json@@AEAA_NAEAVToken@12@@Z DQ 00000000619930522r ; 1.2944e-313
	DD	imagerel $stateUnwindMap$?readObject@Reader@Json@@AEAA_NAEAVToken@12@@Z
	DQ	00000000000000000r		; 0
	DD	0bH
	DD	imagerel $ip2state$?readObject@Reader@Json@@AEAA_NAEAVToken@12@@Z
	DQ	00000000000000068r		; 5.13828e-322
	DD	01H
CONST	ENDS
;	COMDAT xdata
xdata	SEGMENT
$unwind$?readObject@Reader@Json@@AEAA_NAEAVToken@12@@Z DD 0b3519H
	DD	01f7427H
	DD	01e6423H
	DD	01d341fH
	DD	0180113H
	DD	0e006f008H
	DD	05004H
	DD	imagerel __GSHandlerCheck_EH
	DD	imagerel $cppxdata$?readObject@Reader@Json@@AEAA_NAEAVToken@12@@Z
	DD	0baH
xdata	ENDS
;	COMDAT xdata
xdata	SEGMENT
$unwind$?dtor$2@?0??readArray@Reader@Json@@AEAA_NAEAVToken@12@@Z@4HA DD 020601H
	DD	050023206H
xdata	ENDS
;	COMDAT xdata
xdata	SEGMENT
$ip2state$?readArray@Reader@Json@@AEAA_NAEAVToken@12@@Z DD imagerel ?readArray@Reader@Json@@AEAA_NAEAVToken@12@@Z+81
	DD	0ffffffffH
	DD	imagerel ?readArray@Reader@Json@@AEAA_NAEAVToken@12@@Z+100
	DD	00H
	DD	imagerel ?readArray@Reader@Json@@AEAA_NAEAVToken@12@@Z+193
	DD	01H
	DD	imagerel ?readArray@Reader@Json@@AEAA_NAEAVToken@12@@Z+396
	DD	0ffffffffH
	DD	imagerel ?readArray@Reader@Json@@AEAA_NAEAVToken@12@@Z+771
	DD	02H
	DD	imagerel ?readArray@Reader@Json@@AEAA_NAEAVToken@12@@Z+853
	DD	0ffffffffH
xdata	ENDS
;	COMDAT xdata
xdata	SEGMENT
$stateUnwindMap$?readArray@Reader@Json@@AEAA_NAEAVToken@12@@Z DD 0ffffffffH
	DD	imagerel ?dtor$2@?0??readArray@Reader@Json@@AEAA_NAEAVToken@12@@Z@4HA
	DD	0ffffffffH
	DD	imagerel ?dtor$0@?0??readArray@Reader@Json@@AEAA_NAEAVToken@12@@Z@4HA
	DD	0ffffffffH
	DD	imagerel ?dtor$1@?0??readArray@Reader@Json@@AEAA_NAEAVToken@12@@Z@4HA
xdata	ENDS
;	COMDAT CONST
CONST	SEGMENT
$cppxdata$?readArray@Reader@Json@@AEAA_NAEAVToken@12@@Z DQ 00000000319930522r ; 6.57797e-314
	DD	imagerel $stateUnwindMap$?readArray@Reader@Json@@AEAA_NAEAVToken@12@@Z
	DQ	00000000000000000r		; 0
	DD	06H
	DD	imagerel $ip2state$?readArray@Reader@Json@@AEAA_NAEAVToken@12@@Z
	DQ	00000000000000050r		; 3.95253e-322
	DD	01H
CONST	ENDS
;	COMDAT xdata
xdata	SEGMENT
$unwind$?readArray@Reader@Json@@AEAA_NAEAVToken@12@@Z DD 0b3419H
	DD	01c6426H
	DD	01b3422H
	DD	0140116H
	DD	0e009f00bH
	DD	07005c007H
	DD	05004H
	DD	imagerel __GSHandlerCheck_EH
	DD	imagerel $cppxdata$?readArray@Reader@Json@@AEAA_NAEAVToken@12@@Z
	DD	09aH
xdata	ENDS
;	COMDAT xdata
xdata	SEGMENT
$ip2state$?decodeNumber@Reader@Json@@AEAA_NAEAVToken@12@@Z DD imagerel ?decodeNumber@Reader@Json@@AEAA_NAEAVToken@12@@Z+140
	DD	0ffffffffH
	DD	imagerel ?decodeNumber@Reader@Json@@AEAA_NAEAVToken@12@@Z+345
	DD	03H
	DD	imagerel ?decodeNumber@Reader@Json@@AEAA_NAEAVToken@12@@Z+477
	DD	0ffffffffH
	DD	imagerel ?decodeNumber@Reader@Json@@AEAA_NAEAVToken@12@@Z+498
	DD	00H
	DD	imagerel ?decodeNumber@Reader@Json@@AEAA_NAEAVToken@12@@Z+518
	DD	01H
	DD	imagerel ?decodeNumber@Reader@Json@@AEAA_NAEAVToken@12@@Z+536
	DD	02H
	DD	imagerel ?decodeNumber@Reader@Json@@AEAA_NAEAVToken@12@@Z+933
	DD	04H
	DD	imagerel ?decodeNumber@Reader@Json@@AEAA_NAEAVToken@12@@Z+1124
	DD	05H
	DD	imagerel ?decodeNumber@Reader@Json@@AEAA_NAEAVToken@12@@Z+1239
	DD	0ffffffffH
xdata	ENDS
;	COMDAT xdata
xdata	SEGMENT
$stateUnwindMap$?decodeNumber@Reader@Json@@AEAA_NAEAVToken@12@@Z DD 0ffffffffH
	DD	imagerel ?dtor$0@?0??decodeNumber@Reader@Json@@AEAA_NAEAVToken@12@@Z@4HA
	DD	00H
	DD	imagerel ?dtor$1@?0??decodeNumber@Reader@Json@@AEAA_NAEAVToken@12@@Z@4HA
	DD	01H
	DD	imagerel ?dtor$2@?0??decodeNumber@Reader@Json@@AEAA_NAEAVToken@12@@Z@4HA
	DD	0ffffffffH
	DD	imagerel ?dtor$3@?0??decodeNumber@Reader@Json@@AEAA_NAEAVToken@12@@Z@4HA
	DD	0ffffffffH
	DD	imagerel ?dtor$4@?0??decodeNumber@Reader@Json@@AEAA_NAEAVToken@12@@Z@4HA
	DD	0ffffffffH
	DD	imagerel ?dtor$5@?0??decodeNumber@Reader@Json@@AEAA_NAEAVToken@12@@Z@4HA
xdata	ENDS
;	COMDAT CONST
CONST	SEGMENT
$cppxdata$?decodeNumber@Reader@Json@@AEAA_NAEAVToken@12@@Z DQ 00000000619930522r ; 1.2944e-313
	DD	imagerel $stateUnwindMap$?decodeNumber@Reader@Json@@AEAA_NAEAVToken@12@@Z
	DQ	00000000000000000r		; 0
	DD	09H
	DD	imagerel $ip2state$?decodeNumber@Reader@Json@@AEAA_NAEAVToken@12@@Z
	DQ	00000000000000038r		; 2.76677e-322
	DD	01H
CONST	ENDS
;	COMDAT xdata
xdata	SEGMENT
$unwind$?decodeNumber@Reader@Json@@AEAA_NAEAVToken@12@@Z DD 093019H
	DD	01d6422H
	DD	01c341eH
	DD	0160112H
	DD	07005e007H
	DD	05004H
	DD	imagerel __GSHandlerCheck_EH
	DD	imagerel $cppxdata$?decodeNumber@Reader@Json@@AEAA_NAEAVToken@12@@Z
	DD	0a2H
xdata	ENDS
;	COMDAT xdata
xdata	SEGMENT
$ip2state$?decodeDouble@Reader@Json@@AEAA_NAEAVToken@12@@Z DD imagerel ?decodeDouble@Reader@Json@@AEAA_NAEAVToken@12@@Z+172
	DD	0ffffffffH
	DD	imagerel ?decodeDouble@Reader@Json@@AEAA_NAEAVToken@12@@Z+342
	DD	00H
	DD	imagerel ?decodeDouble@Reader@Json@@AEAA_NAEAVToken@12@@Z+363
	DD	01H
	DD	imagerel ?decodeDouble@Reader@Json@@AEAA_NAEAVToken@12@@Z+383
	DD	02H
	DD	imagerel ?decodeDouble@Reader@Json@@AEAA_NAEAVToken@12@@Z+403
	DD	01H
	DD	imagerel ?decodeDouble@Reader@Json@@AEAA_NAEAVToken@12@@Z+793
	DD	03H
	DD	imagerel ?decodeDouble@Reader@Json@@AEAA_NAEAVToken@12@@Z+908
	DD	0ffffffffH
xdata	ENDS
;	COMDAT xdata
xdata	SEGMENT
$stateUnwindMap$?decodeDouble@Reader@Json@@AEAA_NAEAVToken@12@@Z DD 0ffffffffH
	DD	imagerel ?dtor$1@?0??decodeDouble@Reader@Json@@AEAA_NAEAVToken@12@@Z@4HA
	DD	00H
	DD	imagerel ?dtor$2@?0??decodeDouble@Reader@Json@@AEAA_NAEAVToken@12@@Z@4HA
	DD	01H
	DD	imagerel ?dtor$3@?0??decodeDouble@Reader@Json@@AEAA_NAEAVToken@12@@Z@4HA
	DD	0ffffffffH
	DD	imagerel ?dtor$4@?0??decodeDouble@Reader@Json@@AEAA_NAEAVToken@12@@Z@4HA
xdata	ENDS
;	COMDAT CONST
CONST	SEGMENT
$cppxdata$?decodeDouble@Reader@Json@@AEAA_NAEAVToken@12@@Z DQ 00000000419930522r ; 8.69997e-314
	DD	imagerel $stateUnwindMap$?decodeDouble@Reader@Json@@AEAA_NAEAVToken@12@@Z
	DQ	00000000000000000r		; 0
	DD	07H
	DD	imagerel $ip2state$?decodeDouble@Reader@Json@@AEAA_NAEAVToken@12@@Z
	DQ	00000000000000040r		; 3.16202e-322
	DD	01H
CONST	ENDS
;	COMDAT xdata
xdata	SEGMENT
$unwind$?decodeDouble@Reader@Json@@AEAA_NAEAVToken@12@@Z DD 093019H
	DD	01d6422H
	DD	01c341eH
	DD	0160112H
	DD	07005e007H
	DD	05004H
	DD	imagerel __GSHandlerCheck_EH
	DD	imagerel $cppxdata$?decodeDouble@Reader@Json@@AEAA_NAEAVToken@12@@Z
	DD	0aaH
xdata	ENDS
;	COMDAT xdata
xdata	SEGMENT
$ip2state$?decodeString@Reader@Json@@AEAA_NAEAVToken@12@@Z DD imagerel ?decodeString@Reader@Json@@AEAA_NAEAVToken@12@@Z+69
	DD	00H
	DD	imagerel ?decodeString@Reader@Json@@AEAA_NAEAVToken@12@@Z+224
	DD	01H
	DD	imagerel ?decodeString@Reader@Json@@AEAA_NAEAVToken@12@@Z+399
	DD	00H
	DD	imagerel ?decodeString@Reader@Json@@AEAA_NAEAVToken@12@@Z+485
	DD	0ffffffffH
xdata	ENDS
;	COMDAT xdata
xdata	SEGMENT
$stateUnwindMap$?decodeString@Reader@Json@@AEAA_NAEAVToken@12@@Z DD 0ffffffffH
	DD	imagerel ?dtor$0@?0??decodeString@Reader@Json@@AEAA_NAEAVToken@12@@Z@4HA
	DD	00H
	DD	imagerel ?dtor$1@?0??decodeString@Reader@Json@@AEAA_NAEAVToken@12@@Z@4HA
xdata	ENDS
;	COMDAT CONST
CONST	SEGMENT
$cppxdata$?decodeString@Reader@Json@@AEAA_NAEAVToken@12@@Z DQ 00000000219930522r ; 4.45598e-314
	DD	imagerel $stateUnwindMap$?decodeString@Reader@Json@@AEAA_NAEAVToken@12@@Z
	DQ	00000000000000000r		; 0
	DD	04H
	DD	imagerel $ip2state$?decodeString@Reader@Json@@AEAA_NAEAVToken@12@@Z
	DQ	00000000000000050r		; 3.95253e-322
	DD	01H
CONST	ENDS
;	COMDAT xdata
xdata	SEGMENT
$unwind$?decodeString@Reader@Json@@AEAA_NAEAVToken@12@@Z DD 072d19H
	DD	01b741fH
	DD	01a341bH
	DD	016010fH
	DD	05004H
	DD	imagerel __GSHandlerCheck_EH
	DD	imagerel $cppxdata$?decodeString@Reader@Json@@AEAA_NAEAVToken@12@@Z
	DD	0aaH
xdata	ENDS
;	COMDAT xdata
xdata	SEGMENT
$ip2state$?decodeString@Reader@Json@@AEAA_NAEAVToken@12@AEAV?$basic_string@DU?$char_traits@D@std@@V?$allocator@D@2@@std@@@Z DD imagerel ?decodeString@Reader@Json@@AEAA_NAEAVToken@12@AEAV?$basic_string@DU?$char_traits@D@std@@V?$allocator@D@2@@std@@@Z+117
	DD	0ffffffffH
	DD	imagerel ?decodeString@Reader@Json@@AEAA_NAEAVToken@12@AEAV?$basic_string@DU?$char_traits@D@std@@V?$allocator@D@2@@std@@@Z+1292
	DD	01H
	DD	imagerel ?decodeString@Reader@Json@@AEAA_NAEAVToken@12@AEAV?$basic_string@DU?$char_traits@D@std@@V?$allocator@D@2@@std@@@Z+1314
	DD	0ffffffffH
	DD	imagerel ?decodeString@Reader@Json@@AEAA_NAEAVToken@12@AEAV?$basic_string@DU?$char_traits@D@std@@V?$allocator@D@2@@std@@@Z+1456
	DD	02H
	DD	imagerel ?decodeString@Reader@Json@@AEAA_NAEAVToken@12@AEAV?$basic_string@DU?$char_traits@D@std@@V?$allocator@D@2@@std@@@Z+1478
	DD	0ffffffffH
	DD	imagerel ?decodeString@Reader@Json@@AEAA_NAEAVToken@12@AEAV?$basic_string@DU?$char_traits@D@std@@V?$allocator@D@2@@std@@@Z+1508
	DD	03H
	DD	imagerel ?decodeString@Reader@Json@@AEAA_NAEAVToken@12@AEAV?$basic_string@DU?$char_traits@D@std@@V?$allocator@D@2@@std@@@Z+1530
	DD	0ffffffffH
	DD	imagerel ?decodeString@Reader@Json@@AEAA_NAEAVToken@12@AEAV?$basic_string@DU?$char_traits@D@std@@V?$allocator@D@2@@std@@@Z+1830
	DD	04H
	DD	imagerel ?decodeString@Reader@Json@@AEAA_NAEAVToken@12@AEAV?$basic_string@DU?$char_traits@D@std@@V?$allocator@D@2@@std@@@Z+1851
	DD	0ffffffffH
	DD	imagerel ?decodeString@Reader@Json@@AEAA_NAEAVToken@12@AEAV?$basic_string@DU?$char_traits@D@std@@V?$allocator@D@2@@std@@@Z+1981
	DD	00H
	DD	imagerel ?decodeString@Reader@Json@@AEAA_NAEAVToken@12@AEAV?$basic_string@DU?$char_traits@D@std@@V?$allocator@D@2@@std@@@Z+2002
	DD	0ffffffffH
	DD	imagerel ?decodeString@Reader@Json@@AEAA_NAEAVToken@12@AEAV?$basic_string@DU?$char_traits@D@std@@V?$allocator@D@2@@std@@@Z+2316
	DD	00H
xdata	ENDS
;	COMDAT xdata
xdata	SEGMENT
$stateUnwindMap$?decodeString@Reader@Json@@AEAA_NAEAVToken@12@AEAV?$basic_string@DU?$char_traits@D@std@@V?$allocator@D@2@@std@@@Z DD 0ffffffffH
	DD	imagerel ?dtor$0@?0??decodeString@Reader@Json@@AEAA_NAEAVToken@12@AEAV?$basic_string@DU?$char_traits@D@std@@V?$allocator@D@2@@std@@@Z@4HA
	DD	0ffffffffH
	DD	imagerel ?dtor$7@?0??decodeString@Reader@Json@@AEAA_NAEAVToken@12@AEAV?$basic_string@DU?$char_traits@D@std@@V?$allocator@D@2@@std@@@Z@4HA
	DD	0ffffffffH
	DD	imagerel ?dtor$8@?0??decodeString@Reader@Json@@AEAA_NAEAVToken@12@AEAV?$basic_string@DU?$char_traits@D@std@@V?$allocator@D@2@@std@@@Z@4HA
	DD	0ffffffffH
	DD	imagerel ?dtor$1@?0??decodeString@Reader@Json@@AEAA_NAEAVToken@12@AEAV?$basic_string@DU?$char_traits@D@std@@V?$allocator@D@2@@std@@@Z@4HA
	DD	0ffffffffH
	DD	imagerel ?dtor$2@?0??decodeString@Reader@Json@@AEAA_NAEAVToken@12@AEAV?$basic_string@DU?$char_traits@D@std@@V?$allocator@D@2@@std@@@Z@4HA
xdata	ENDS
;	COMDAT CONST
CONST	SEGMENT
$cppxdata$?decodeString@Reader@Json@@AEAA_NAEAVToken@12@AEAV?$basic_string@DU?$char_traits@D@std@@V?$allocator@D@2@@std@@@Z DQ 00000000519930522r ; 1.0822e-313
	DD	imagerel $stateUnwindMap$?decodeString@Reader@Json@@AEAA_NAEAVToken@12@AEAV?$basic_string@DU?$char_traits@D@std@@V?$allocator@D@2@@std@@@Z
	DQ	00000000000000000r		; 0
	DD	0cH
	DD	imagerel $ip2state$?decodeString@Reader@Json@@AEAA_NAEAVToken@12@AEAV?$basic_string@DU?$char_traits@D@std@@V?$allocator@D@2@@std@@@Z
	DQ	00000000000000040r		; 3.16202e-322
	DD	01H
CONST	ENDS
;	COMDAT xdata
xdata	SEGMENT
$unwind$?decodeString@Reader@Json@@AEAA_NAEAVToken@12@AEAV?$basic_string@DU?$char_traits@D@std@@V?$allocator@D@2@@std@@@Z DD 0b3619H
	DD	01d3428H
	DD	0120118H
	DD	0e00af00cH
	DD	0c006d008H
	DD	060037004H
	DD	05002H
	DD	imagerel __GSHandlerCheck_EH
	DD	imagerel $cppxdata$?decodeString@Reader@Json@@AEAA_NAEAVToken@12@AEAV?$basic_string@DU?$char_traits@D@std@@V?$allocator@D@2@@std@@@Z
	DD	08aH
xdata	ENDS
;	COMDAT xdata
xdata	SEGMENT
$ip2state$?decodeUnicodeCodePoint@Reader@Json@@AEAA_NAEAVToken@12@AEAPEBDPEBDAEAI@Z DD imagerel ?decodeUnicodeCodePoint@Reader@Json@@AEAA_NAEAVToken@12@AEAPEBDPEBDAEAI@Z+60
	DD	0ffffffffH
	DD	imagerel ?decodeUnicodeCodePoint@Reader@Json@@AEAA_NAEAVToken@12@AEAPEBDPEBDAEAI@Z+156
	DD	00H
	DD	imagerel ?decodeUnicodeCodePoint@Reader@Json@@AEAA_NAEAVToken@12@AEAPEBDPEBDAEAI@Z+178
	DD	0ffffffffH
	DD	imagerel ?decodeUnicodeCodePoint@Reader@Json@@AEAA_NAEAVToken@12@AEAPEBDPEBDAEAI@Z+357
	DD	01H
	DD	imagerel ?decodeUnicodeCodePoint@Reader@Json@@AEAA_NAEAVToken@12@AEAPEBDPEBDAEAI@Z+379
	DD	0ffffffffH
xdata	ENDS
;	COMDAT xdata
xdata	SEGMENT
$stateUnwindMap$?decodeUnicodeCodePoint@Reader@Json@@AEAA_NAEAVToken@12@AEAPEBDPEBDAEAI@Z DD 0ffffffffH
	DD	imagerel ?dtor$0@?0??decodeUnicodeCodePoint@Reader@Json@@AEAA_NAEAVToken@12@AEAPEBDPEBDAEAI@Z@4HA
	DD	0ffffffffH
	DD	imagerel ?dtor$1@?0??decodeUnicodeCodePoint@Reader@Json@@AEAA_NAEAVToken@12@AEAPEBDPEBDAEAI@Z@4HA
xdata	ENDS
;	COMDAT CONST
CONST	SEGMENT
$cppxdata$?decodeUnicodeCodePoint@Reader@Json@@AEAA_NAEAVToken@12@AEAPEBDPEBDAEAI@Z DQ 00000000219930522r ; 4.45598e-314
	DD	imagerel $stateUnwindMap$?decodeUnicodeCodePoint@Reader@Json@@AEAA_NAEAVToken@12@AEAPEBDPEBDAEAI@Z
	DQ	00000000000000000r		; 0
	DD	05H
	DD	imagerel $ip2state$?decodeUnicodeCodePoint@Reader@Json@@AEAA_NAEAVToken@12@AEAPEBDPEBDAEAI@Z
	DQ	00000000000000038r		; 2.76677e-322
	DD	01H
CONST	ENDS
;	COMDAT xdata
xdata	SEGMENT
$unwind$?decodeUnicodeCodePoint@Reader@Json@@AEAA_NAEAVToken@12@AEAPEBDPEBDAEAI@Z DD 062319H
	DD	0e007d20bH
	DD	060047005H
	DD	030025003H
	DD	imagerel __GSHandlerCheck_EH
	DD	imagerel $cppxdata$?decodeUnicodeCodePoint@Reader@Json@@AEAA_NAEAVToken@12@AEAPEBDPEBDAEAI@Z
	DD	062H
xdata	ENDS
;	COMDAT xdata
xdata	SEGMENT
$ip2state$?decodeUnicodeEscapeSequence@Reader@Json@@AEAA_NAEAVToken@12@AEAPEBDPEBDAEAI@Z DD imagerel ?decodeUnicodeEscapeSequence@Reader@Json@@AEAA_NAEAVToken@12@AEAPEBDPEBDAEAI@Z+100
	DD	0ffffffffH
	DD	imagerel ?decodeUnicodeEscapeSequence@Reader@Json@@AEAA_NAEAVToken@12@AEAPEBDPEBDAEAI@Z+120
	DD	00H
	DD	imagerel ?decodeUnicodeEscapeSequence@Reader@Json@@AEAA_NAEAVToken@12@AEAPEBDPEBDAEAI@Z+362
	DD	0ffffffffH
	DD	imagerel ?decodeUnicodeEscapeSequence@Reader@Json@@AEAA_NAEAVToken@12@AEAPEBDPEBDAEAI@Z+382
	DD	01H
	DD	imagerel ?decodeUnicodeEscapeSequence@Reader@Json@@AEAA_NAEAVToken@12@AEAPEBDPEBDAEAI@Z+469
	DD	0ffffffffH
xdata	ENDS
;	COMDAT xdata
xdata	SEGMENT
$stateUnwindMap$?decodeUnicodeEscapeSequence@Reader@Json@@AEAA_NAEAVToken@12@AEAPEBDPEBDAEAI@Z DD 0ffffffffH
	DD	imagerel ?dtor$0@?0??decodeUnicodeEscapeSequence@Reader@Json@@AEAA_NAEAVToken@12@AEAPEBDPEBDAEAI@Z@4HA
	DD	0ffffffffH
	DD	imagerel ?dtor$1@?0??decodeUnicodeEscapeSequence@Reader@Json@@AEAA_NAEAVToken@12@AEAPEBDPEBDAEAI@Z@4HA
xdata	ENDS
;	COMDAT CONST
CONST	SEGMENT
$cppxdata$?decodeUnicodeEscapeSequence@Reader@Json@@AEAA_NAEAVToken@12@AEAPEBDPEBDAEAI@Z DQ 00000000219930522r ; 4.45598e-314
	DD	imagerel $stateUnwindMap$?decodeUnicodeEscapeSequence@Reader@Json@@AEAA_NAEAVToken@12@AEAPEBDPEBDAEAI@Z
	DQ	00000000000000000r		; 0
	DD	05H
	DD	imagerel $ip2state$?decodeUnicodeEscapeSequence@Reader@Json@@AEAA_NAEAVToken@12@AEAPEBDPEBDAEAI@Z
	DQ	00000000000000020r		; 1.58101e-322
	DD	01H
CONST	ENDS
;	COMDAT xdata
xdata	SEGMENT
$unwind$?decodeUnicodeEscapeSequence@Reader@Json@@AEAA_NAEAVToken@12@AEAPEBDPEBDAEAI@Z DD 042019H
	DD	070049208H
	DD	030026003H
	DD	imagerel __GSHandlerCheck_EH
	DD	imagerel $cppxdata$?decodeUnicodeEscapeSequence@Reader@Json@@AEAA_NAEAVToken@12@AEAPEBDPEBDAEAI@Z
	DD	04aH
xdata	ENDS
;	COMDAT xdata
xdata	SEGMENT
$unwind$?dtor$3@?0??addError@Reader@Json@@AEAA_NAEBV?$basic_string@DU?$char_traits@D@std@@V?$allocator@D@2@@std@@AEAVToken@12@PEBD@Z@4HA DD 020601H
	DD	050023206H
xdata	ENDS
;	COMDAT xdata
xdata	SEGMENT
$ip2state$?addError@Reader@Json@@AEAA_NAEBV?$basic_string@DU?$char_traits@D@std@@V?$allocator@D@2@@std@@AEAVToken@12@PEBD@Z DD imagerel ?addError@Reader@Json@@AEAA_NAEBV?$basic_string@DU?$char_traits@D@std@@V?$allocator@D@2@@std@@AEAVToken@12@PEBD@Z+112
	DD	00H
	DD	imagerel ?addError@Reader@Json@@AEAA_NAEBV?$basic_string@DU?$char_traits@D@std@@V?$allocator@D@2@@std@@AEAVToken@12@PEBD@Z+232
	DD	01H
	DD	imagerel ?addError@Reader@Json@@AEAA_NAEBV?$basic_string@DU?$char_traits@D@std@@V?$allocator@D@2@@std@@AEAVToken@12@PEBD@Z+308
	DD	00H
	DD	imagerel ?addError@Reader@Json@@AEAA_NAEBV?$basic_string@DU?$char_traits@D@std@@V?$allocator@D@2@@std@@AEAVToken@12@PEBD@Z+335
	DD	0ffffffffH
xdata	ENDS
;	COMDAT xdata
xdata	SEGMENT
$stateUnwindMap$?addError@Reader@Json@@AEAA_NAEBV?$basic_string@DU?$char_traits@D@std@@V?$allocator@D@2@@std@@AEAVToken@12@PEBD@Z DD 0ffffffffH
	DD	imagerel ?dtor$0@?0??addError@Reader@Json@@AEAA_NAEBV?$basic_string@DU?$char_traits@D@std@@V?$allocator@D@2@@std@@AEAVToken@12@PEBD@Z@4HA
	DD	00H
	DD	imagerel ?dtor$3@?0??addError@Reader@Json@@AEAA_NAEBV?$basic_string@DU?$char_traits@D@std@@V?$allocator@D@2@@std@@AEAVToken@12@PEBD@Z@4HA
xdata	ENDS
;	COMDAT CONST
CONST	SEGMENT
$cppxdata$?addError@Reader@Json@@AEAA_NAEBV?$basic_string@DU?$char_traits@D@std@@V?$allocator@D@2@@std@@AEAVToken@12@PEBD@Z DQ 00000000219930522r ; 4.45598e-314
	DD	imagerel $stateUnwindMap$?addError@Reader@Json@@AEAA_NAEBV?$basic_string@DU?$char_traits@D@std@@V?$allocator@D@2@@std@@AEAVToken@12@PEBD@Z
	DQ	00000000000000000r		; 0
	DD	04H
	DD	imagerel $ip2state$?addError@Reader@Json@@AEAA_NAEBV?$basic_string@DU?$char_traits@D@std@@V?$allocator@D@2@@std@@AEAVToken@12@PEBD@Z
	DQ	00000000000000020r		; 1.58101e-322
	DD	01H
CONST	ENDS
;	COMDAT xdata
xdata	SEGMENT
$unwind$?addError@Reader@Json@@AEAA_NAEBV?$basic_string@DU?$char_traits@D@std@@V?$allocator@D@2@@std@@AEAVToken@12@PEBD@Z DD 042519H
	DD	013010aH
	DD	030027003H
	DD	imagerel __GSHandlerCheck_EH
	DD	imagerel $cppxdata$?addError@Reader@Json@@AEAA_NAEBV?$basic_string@DU?$char_traits@D@std@@V?$allocator@D@2@@std@@AEAVToken@12@PEBD@Z
	DD	082H
xdata	ENDS
;	COMDAT xdata
xdata	SEGMENT
$unwind$?recoverFromError@Reader@Json@@AEAA_NW4TokenType@12@@Z DD 060f01H
	DD	0b640fH
	DD	0a340fH
	DD	0700b720fH
xdata	ENDS
;	COMDAT xdata
xdata	SEGMENT
$unwind$?addErrorAndRecover@Reader@Json@@AEAA_NAEBV?$basic_string@DU?$char_traits@D@std@@V?$allocator@D@2@@std@@AEAVToken@12@W4TokenType@12@@Z DD 060f01H
	DD	0b640fH
	DD	0a340fH
	DD	0700b720fH
xdata	ENDS
;	COMDAT xdata
xdata	SEGMENT
$unwind$?currentValue@Reader@Json@@AEAAAEAVValue@2@XZ DD 010401H
	DD	0a204H
xdata	ENDS
;	COMDAT xdata
xdata	SEGMENT
$unwind$??1Reader@Json@@QEAA@XZ DD 060f01H
	DD	07640fH
	DD	06340fH
	DD	0700b320fH
xdata	ENDS
;	COMDAT xdata
xdata	SEGMENT
$unwind$?top@?$stack@PEAVValue@Json@@V?$deque@PEAVValue@Json@@V?$allocator@PEAVValue@Json@@@std@@@std@@@std@@QEAAAEAPEAVValue@Json@@XZ DD 010401H
	DD	0a204H
xdata	ENDS
;	COMDAT xdata
xdata	SEGMENT
$unwind$?push@?$stack@PEAVValue@Json@@V?$deque@PEAVValue@Json@@V?$allocator@PEAVValue@Json@@@std@@@std@@@std@@QEAAX$$QEAPEAVValue@Json@@@Z DD 081501H
	DD	087415H
	DD	076415H
	DD	063415H
	DD	0e0113215H
xdata	ENDS
;	COMDAT xdata
xdata	SEGMENT
$unwind$??0?$stack@PEAVValue@Json@@V?$deque@PEAVValue@Json@@V?$allocator@PEAVValue@Json@@@std@@@std@@@std@@QEAA@XZ DD 020601H
	DD	030023206H
xdata	ENDS
;	COMDAT xdata
xdata	SEGMENT
$unwind$??1?$deque@PEAVValue@Json@@V?$allocator@PEAVValue@Json@@@std@@@std@@QEAA@XZ DD 060f01H
	DD	07640fH
	DD	06340fH
	DD	0700b320fH
xdata	ENDS
;	COMDAT xdata
xdata	SEGMENT
$unwind$?dtor$0@?0??push_back@?$deque@VErrorInfo@Reader@Json@@V?$allocator@VErrorInfo@Reader@Json@@@std@@@std@@QEAAXAEBVErrorInfo@Reader@Json@@@Z@4HA DD 020601H
	DD	050023206H
xdata	ENDS
;	COMDAT xdata
xdata	SEGMENT
$ip2state$?push_back@?$deque@VErrorInfo@Reader@Json@@V?$allocator@VErrorInfo@Reader@Json@@@std@@@std@@QEAAXAEBVErrorInfo@Reader@Json@@@Z DD imagerel ?push_back@?$deque@VErrorInfo@Reader@Json@@V?$allocator@VErrorInfo@Reader@Json@@@std@@@std@@QEAAXAEBVErrorInfo@Reader@Json@@@Z+50
	DD	0ffffffffH
	DD	imagerel ?push_back@?$deque@VErrorInfo@Reader@Json@@V?$allocator@VErrorInfo@Reader@Json@@@std@@@std@@QEAAXAEBVErrorInfo@Reader@Json@@@Z+140
	DD	00H
	DD	imagerel ?push_back@?$deque@VErrorInfo@Reader@Json@@V?$allocator@VErrorInfo@Reader@Json@@@std@@@std@@QEAAXAEBVErrorInfo@Reader@Json@@@Z+211
	DD	0ffffffffH
xdata	ENDS
;	COMDAT xdata
xdata	SEGMENT
$stateUnwindMap$?push_back@?$deque@VErrorInfo@Reader@Json@@V?$allocator@VErrorInfo@Reader@Json@@@std@@@std@@QEAAXAEBVErrorInfo@Reader@Json@@@Z DD 0ffffffffH
	DD	imagerel ?dtor$0@?0??push_back@?$deque@VErrorInfo@Reader@Json@@V?$allocator@VErrorInfo@Reader@Json@@@std@@@std@@QEAAXAEBVErrorInfo@Reader@Json@@@Z@4HA
xdata	ENDS
;	COMDAT CONST
CONST	SEGMENT
$cppxdata$?push_back@?$deque@VErrorInfo@Reader@Json@@V?$allocator@VErrorInfo@Reader@Json@@@std@@@std@@QEAAXAEBVErrorInfo@Reader@Json@@@Z DQ 00000000119930522r ; 2.33398e-314
	DD	imagerel $stateUnwindMap$?push_back@?$deque@VErrorInfo@Reader@Json@@V?$allocator@VErrorInfo@Reader@Json@@@std@@@std@@QEAAXAEBVErrorInfo@Reader@Json@@@Z
	DQ	00000000000000000r		; 0
	DD	03H
	DD	imagerel $ip2state$?push_back@?$deque@VErrorInfo@Reader@Json@@V?$allocator@VErrorInfo@Reader@Json@@@std@@@std@@QEAAXAEBVErrorInfo@Reader@Json@@@Z
	DQ	00000000000000020r		; 1.58101e-322
	DD	01H
CONST	ENDS
;	COMDAT xdata
xdata	SEGMENT
$unwind$?push_back@?$deque@VErrorInfo@Reader@Json@@V?$allocator@VErrorInfo@Reader@Json@@@std@@@std@@QEAAXAEBVErrorInfo@Reader@Json@@@Z DD 061911H
	DD	0b6419H
	DD	093414H
	DD	070025206H
	DD	imagerel __CxxFrameHandler3
	DD	imagerel $cppxdata$?push_back@?$deque@VErrorInfo@Reader@Json@@V?$allocator@VErrorInfo@Reader@Json@@@std@@@std@@QEAAXAEBVErrorInfo@Reader@Json@@@Z
xdata	ENDS
;	COMDAT xdata
xdata	SEGMENT
$chain$1$?resize@?$deque@VErrorInfo@Reader@Json@@V?$allocator@VErrorInfo@Reader@Json@@@std@@@std@@QEAAX_K@Z DD 021H
	DD	imagerel $LN340@resize
	DD	imagerel $LN340@resize+36
	DD	imagerel $unwind$?resize@?$deque@VErrorInfo@Reader@Json@@V?$allocator@VErrorInfo@Reader@Json@@@std@@@std@@QEAAX_K@Z
xdata	ENDS
;	COMDAT xdata
xdata	SEGMENT
$chain$0$?resize@?$deque@VErrorInfo@Reader@Json@@V?$allocator@VErrorInfo@Reader@Json@@@std@@@std@@QEAAX_K@Z DD 020521H
	DD	067405H
	DD	imagerel $LN340@resize
	DD	imagerel $LN340@resize+36
	DD	imagerel $unwind$?resize@?$deque@VErrorInfo@Reader@Json@@V?$allocator@VErrorInfo@Reader@Json@@@std@@@std@@QEAAX_K@Z
xdata	ENDS
;	COMDAT xdata
xdata	SEGMENT
$unwind$?resize@?$deque@VErrorInfo@Reader@Json@@V?$allocator@VErrorInfo@Reader@Json@@@std@@@std@@QEAAX_K@Z DD 060f01H
	DD	08540fH
	DD	07340fH
	DD	0600b320fH
xdata	ENDS
;	COMDAT xdata
xdata	SEGMENT
$unwind$??1?$deque@VErrorInfo@Reader@Json@@V?$allocator@VErrorInfo@Reader@Json@@@std@@@std@@QEAA@XZ DD 020601H
	DD	030023206H
xdata	ENDS
;	COMDAT xdata
xdata	SEGMENT
$unwind$??0?$deque@VErrorInfo@Reader@Json@@V?$allocator@VErrorInfo@Reader@Json@@@std@@@std@@QEAA@XZ DD 020601H
	DD	030023206H
xdata	ENDS
;	COMDAT xdata
xdata	SEGMENT
$unwind$??1?$_Yarn@_W@std@@QEAA@XZ DD 020601H
	DD	030023206H
xdata	ENDS
;	COMDAT xdata
xdata	SEGMENT
$unwind$??1?$_Yarn@D@std@@QEAA@XZ DD 020601H
	DD	030023206H
xdata	ENDS
;	COMDAT xdata
xdata	SEGMENT
$unwind$?reserve@?$basic_string@DU?$char_traits@D@std@@V?$allocator@D@2@@std@@QEAAX_K@Z DD 060f01H
	DD	07640fH
	DD	06340fH
	DD	0700b320fH
xdata	ENDS
;	COMDAT xdata
xdata	SEGMENT
$unwind$?append@?$basic_string@DU?$char_traits@D@std@@V?$allocator@D@2@@std@@QEAAAEAV12@PEBD@Z DD 084501H
	DD	065445H
	DD	08640fH
	DD	07340fH
	DD	0700b320fH
xdata	ENDS
;	COMDAT xdata
xdata	SEGMENT
$chain$7$??Y?$basic_string@DU?$char_traits@D@std@@V?$allocator@D@2@@std@@QEAAAEAV01@D@Z DD 021H
	DD	imagerel $LN143@operator
	DD	imagerel $LN143@operator+36
	DD	imagerel $unwind$??Y?$basic_string@DU?$char_traits@D@std@@V?$allocator@D@2@@std@@QEAAAEAV01@D@Z
xdata	ENDS
;	COMDAT xdata
xdata	SEGMENT
$chain$6$??Y?$basic_string@DU?$char_traits@D@std@@V?$allocator@D@2@@std@@QEAAAEAV01@D@Z DD 020021H
	DD	067400H
	DD	imagerel $LN143@operator
	DD	imagerel $LN143@operator+36
	DD	imagerel $unwind$??Y?$basic_string@DU?$char_traits@D@std@@V?$allocator@D@2@@std@@QEAAAEAV01@D@Z
xdata	ENDS
;	COMDAT xdata
xdata	SEGMENT
$chain$4$??Y?$basic_string@DU?$char_traits@D@std@@V?$allocator@D@2@@std@@QEAAAEAV01@D@Z DD 020021H
	DD	067400H
	DD	imagerel $LN143@operator
	DD	imagerel $LN143@operator+36
	DD	imagerel $unwind$??Y?$basic_string@DU?$char_traits@D@std@@V?$allocator@D@2@@std@@QEAAAEAV01@D@Z
xdata	ENDS
;	COMDAT xdata
xdata	SEGMENT
$chain$2$??Y?$basic_string@DU?$char_traits@D@std@@V?$allocator@D@2@@std@@QEAAAEAV01@D@Z DD 020021H
	DD	067400H
	DD	imagerel $LN143@operator
	DD	imagerel $LN143@operator+36
	DD	imagerel $unwind$??Y?$basic_string@DU?$char_traits@D@std@@V?$allocator@D@2@@std@@QEAAAEAV01@D@Z
xdata	ENDS
;	COMDAT xdata
xdata	SEGMENT
$chain$0$??Y?$basic_string@DU?$char_traits@D@std@@V?$allocator@D@2@@std@@QEAAAEAV01@D@Z DD 020521H
	DD	067405H
	DD	imagerel $LN143@operator
	DD	imagerel $LN143@operator+36
	DD	imagerel $unwind$??Y?$basic_string@DU?$char_traits@D@std@@V?$allocator@D@2@@std@@QEAAAEAV01@D@Z
xdata	ENDS
;	COMDAT xdata
xdata	SEGMENT
$unwind$??Y?$basic_string@DU?$char_traits@D@std@@V?$allocator@D@2@@std@@QEAAAEAV01@D@Z DD 040a01H
	DD	07340aH
	DD	06006320aH
xdata	ENDS
;	COMDAT xdata
xdata	SEGMENT
$unwind$??4?$basic_string@DU?$char_traits@D@std@@V?$allocator@D@2@@std@@QEAAAEAV01@AEBV01@@Z DD 020601H
	DD	030023206H
xdata	ENDS
;	COMDAT xdata
xdata	SEGMENT
$unwind$??1?$_Deque_alloc@U?$_Deque_base_types@VErrorInfo@Reader@Json@@V?$allocator@VErrorInfo@Reader@Json@@@std@@@std@@@std@@QEAA@XZ DD 020601H
	DD	030023206H
xdata	ENDS
;	COMDAT xdata
xdata	SEGMENT
$unwind$??0?$_Deque_alloc@U?$_Deque_base_types@VErrorInfo@Reader@Json@@V?$allocator@VErrorInfo@Reader@Json@@@std@@@std@@@std@@QEAA@XZ DD 020601H
	DD	030023206H
xdata	ENDS
;	COMDAT xdata
xdata	SEGMENT
$unwind$??1?$_Deque_alloc@U?$_Deque_base_types@PEAVValue@Json@@V?$allocator@PEAVValue@Json@@@std@@@std@@@std@@QEAA@XZ DD 020601H
	DD	030023206H
xdata	ENDS
;	COMDAT xdata
xdata	SEGMENT
$unwind$?_Tidy@?$deque@PEAVValue@Json@@V?$allocator@PEAVValue@Json@@@std@@@std@@IEAAXXZ DD 060f01H
	DD	07640fH
	DD	06340fH
	DD	0700b320fH
xdata	ENDS
;	COMDAT xdata
xdata	SEGMENT
$unwind$?back@?$deque@PEAVValue@Json@@V?$allocator@PEAVValue@Json@@@std@@@std@@QEAAAEAPEAVValue@Json@@XZ DD 010401H
	DD	0a204H
xdata	ENDS
;	COMDAT xdata
xdata	SEGMENT
$unwind$?push_back@?$deque@PEAVValue@Json@@V?$allocator@PEAVValue@Json@@@std@@@std@@QEAAX$$QEAPEAVValue@Json@@@Z DD 081501H
	DD	087415H
	DD	076415H
	DD	063415H
	DD	0e0113215H
xdata	ENDS
;	COMDAT xdata
xdata	SEGMENT
$unwind$??0?$deque@PEAVValue@Json@@V?$allocator@PEAVValue@Json@@@std@@@std@@QEAA@XZ DD 020601H
	DD	030023206H
xdata	ENDS
;	COMDAT xdata
xdata	SEGMENT
$unwind$?_Tidy@?$deque@VErrorInfo@Reader@Json@@V?$allocator@VErrorInfo@Reader@Json@@@std@@@std@@IEAAXXZ DD 060f01H
	DD	07640fH
	DD	06340fH
	DD	0700b320fH
xdata	ENDS
;	COMDAT xdata
xdata	SEGMENT
$chain$10$?_Growmap@?$deque@VErrorInfo@Reader@Json@@V?$allocator@VErrorInfo@Reader@Json@@@std@@@std@@IEAAX_K@Z DD 060021H
	DD	05e400H
	DD	06d400H
	DD	0cc400H
	DD	imagerel $LN310@Growmap
	DD	imagerel $LN310@Growmap+74
	DD	imagerel $unwind$?_Growmap@?$deque@VErrorInfo@Reader@Json@@V?$allocator@VErrorInfo@Reader@Json@@@std@@@std@@IEAAX_K@Z
xdata	ENDS
;	COMDAT xdata
xdata	SEGMENT
$chain$9$?_Growmap@?$deque@VErrorInfo@Reader@Json@@V?$allocator@VErrorInfo@Reader@Json@@@std@@@std@@IEAAX_K@Z DD 021H
	DD	imagerel $LN310@Growmap
	DD	imagerel $LN310@Growmap+74
	DD	imagerel $unwind$?_Growmap@?$deque@VErrorInfo@Reader@Json@@V?$allocator@VErrorInfo@Reader@Json@@@std@@@std@@IEAAX_K@Z
xdata	ENDS
;	COMDAT xdata
xdata	SEGMENT
$chain$8$?_Growmap@?$deque@VErrorInfo@Reader@Json@@V?$allocator@VErrorInfo@Reader@Json@@@std@@@std@@IEAAX_K@Z DD 060021H
	DD	05e400H
	DD	06d400H
	DD	0cc400H
	DD	imagerel $LN310@Growmap
	DD	imagerel $LN310@Growmap+74
	DD	imagerel $unwind$?_Growmap@?$deque@VErrorInfo@Reader@Json@@V?$allocator@VErrorInfo@Reader@Json@@@std@@@std@@IEAAX_K@Z
xdata	ENDS
;	COMDAT xdata
xdata	SEGMENT
$chain$6$?_Growmap@?$deque@VErrorInfo@Reader@Json@@V?$allocator@VErrorInfo@Reader@Json@@@std@@@std@@IEAAX_K@Z DD 021H
	DD	imagerel $LN310@Growmap+74
	DD	imagerel $LN310@Growmap+186
	DD	imagerel $chain$2$?_Growmap@?$deque@VErrorInfo@Reader@Json@@V?$allocator@VErrorInfo@Reader@Json@@@std@@@std@@IEAAX_K@Z
xdata	ENDS
;	COMDAT xdata
xdata	SEGMENT
$chain$5$?_Growmap@?$deque@VErrorInfo@Reader@Json@@V?$allocator@VErrorInfo@Reader@Json@@@std@@@std@@IEAAX_K@Z DD 061721H
	DD	04f417H
	DD	0b740eH
	DD	0a3405H
	DD	imagerel $LN310@Growmap+74
	DD	imagerel $LN310@Growmap+186
	DD	imagerel $chain$2$?_Growmap@?$deque@VErrorInfo@Reader@Json@@V?$allocator@VErrorInfo@Reader@Json@@@std@@@std@@IEAAX_K@Z
xdata	ENDS
;	COMDAT xdata
xdata	SEGMENT
$chain$2$?_Growmap@?$deque@VErrorInfo@Reader@Json@@V?$allocator@VErrorInfo@Reader@Json@@@std@@@std@@IEAAX_K@Z DD 061d21H
	DD	05e41dH
	DD	06d40eH
	DD	0cc405H
	DD	imagerel $LN310@Growmap
	DD	imagerel $LN310@Growmap+74
	DD	imagerel $unwind$?_Growmap@?$deque@VErrorInfo@Reader@Json@@V?$allocator@VErrorInfo@Reader@Json@@@std@@@std@@IEAAX_K@Z
xdata	ENDS
;	COMDAT xdata
xdata	SEGMENT
$unwind$?_Growmap@?$deque@VErrorInfo@Reader@Json@@V?$allocator@VErrorInfo@Reader@Json@@@std@@@std@@IEAAX_K@Z DD 030701H
	DD	060036207H
	DD	05002H
xdata	ENDS
;	COMDAT xdata
xdata	SEGMENT
$unwind$?pop_back@?$deque@VErrorInfo@Reader@Json@@V?$allocator@VErrorInfo@Reader@Json@@@std@@@std@@QEAAXXZ DD 020601H
	DD	030023206H
xdata	ENDS
;	COMDAT xdata
xdata	SEGMENT
$unwind$?_Tidy@?$_Yarn@_W@std@@AEAAXXZ DD 020601H
	DD	030023206H
xdata	ENDS
;	COMDAT xdata
xdata	SEGMENT
$unwind$?_Tidy@?$_Yarn@D@std@@AEAAXXZ DD 020601H
	DD	030023206H
xdata	ENDS
;	COMDAT xdata
xdata	SEGMENT
$chain$3$?append@?$basic_string@DU?$char_traits@D@std@@V?$allocator@D@2@@std@@QEAAAEAV12@_KD@Z DD 021H
	DD	imagerel $LN140@append
	DD	imagerel $LN140@append+44
	DD	imagerel $unwind$?append@?$basic_string@DU?$char_traits@D@std@@V?$allocator@D@2@@std@@QEAAAEAV12@_KD@Z
xdata	ENDS
;	COMDAT xdata
xdata	SEGMENT
$chain$2$?append@?$basic_string@DU?$char_traits@D@std@@V?$allocator@D@2@@std@@QEAAAEAV12@_KD@Z DD 020021H
	DD	067400H
	DD	imagerel $LN140@append
	DD	imagerel $LN140@append+44
	DD	imagerel $unwind$?append@?$basic_string@DU?$char_traits@D@std@@V?$allocator@D@2@@std@@QEAAAEAV12@_KD@Z
xdata	ENDS
;	COMDAT xdata
xdata	SEGMENT
$chain$0$?append@?$basic_string@DU?$char_traits@D@std@@V?$allocator@D@2@@std@@QEAAAEAV12@_KD@Z DD 020521H
	DD	067405H
	DD	imagerel $LN140@append
	DD	imagerel $LN140@append+44
	DD	imagerel $unwind$?append@?$basic_string@DU?$char_traits@D@std@@V?$allocator@D@2@@std@@QEAAAEAV12@_KD@Z
xdata	ENDS
;	COMDAT xdata
xdata	SEGMENT
$unwind$?append@?$basic_string@DU?$char_traits@D@std@@V?$allocator@D@2@@std@@QEAAAEAV12@_KD@Z DD 060f01H
	DD	08540fH
	DD	07340fH
	DD	0600b320fH
xdata	ENDS
;	COMDAT xdata
xdata	SEGMENT
$chain$3$?append@?$basic_string@DU?$char_traits@D@std@@V?$allocator@D@2@@std@@QEAAAEAV12@PEBD_K@Z DD 021H
	DD	imagerel $LN173@append
	DD	imagerel $LN173@append+138
	DD	imagerel $unwind$?append@?$basic_string@DU?$char_traits@D@std@@V?$allocator@D@2@@std@@QEAAAEAV12@PEBD_K@Z
xdata	ENDS
;	COMDAT xdata
xdata	SEGMENT
$chain$2$?append@?$basic_string@DU?$char_traits@D@std@@V?$allocator@D@2@@std@@QEAAAEAV12@PEBD_K@Z DD 020021H
	DD	067400H
	DD	imagerel $LN173@append
	DD	imagerel $LN173@append+138
	DD	imagerel $unwind$?append@?$basic_string@DU?$char_traits@D@std@@V?$allocator@D@2@@std@@QEAAAEAV12@PEBD_K@Z
xdata	ENDS
;	COMDAT xdata
xdata	SEGMENT
$chain$0$?append@?$basic_string@DU?$char_traits@D@std@@V?$allocator@D@2@@std@@QEAAAEAV12@PEBD_K@Z DD 020521H
	DD	067405H
	DD	imagerel $LN173@append
	DD	imagerel $LN173@append+138
	DD	imagerel $unwind$?append@?$basic_string@DU?$char_traits@D@std@@V?$allocator@D@2@@std@@QEAAAEAV12@PEBD_K@Z
xdata	ENDS
;	COMDAT xdata
xdata	SEGMENT
$unwind$?append@?$basic_string@DU?$char_traits@D@std@@V?$allocator@D@2@@std@@QEAAAEAV12@PEBD_K@Z DD 060f01H
	DD	08540fH
	DD	07340fH
	DD	0600b320fH
xdata	ENDS
;	COMDAT xdata
xdata	SEGMENT
$chain$3$?append@?$basic_string@DU?$char_traits@D@std@@V?$allocator@D@2@@std@@QEAAAEAV12@AEBV12@_K1@Z DD 021H
	DD	imagerel $LN156@append
	DD	imagerel $LN156@append+75
	DD	imagerel $unwind$?append@?$basic_string@DU?$char_traits@D@std@@V?$allocator@D@2@@std@@QEAAAEAV12@AEBV12@_K1@Z
xdata	ENDS
;	COMDAT xdata
xdata	SEGMENT
$chain$2$?append@?$basic_string@DU?$char_traits@D@std@@V?$allocator@D@2@@std@@QEAAAEAV12@AEBV12@_K1@Z DD 020021H
	DD	067400H
	DD	imagerel $LN156@append
	DD	imagerel $LN156@append+75
	DD	imagerel $unwind$?append@?$basic_string@DU?$char_traits@D@std@@V?$allocator@D@2@@std@@QEAAAEAV12@AEBV12@_K1@Z
xdata	ENDS
;	COMDAT xdata
xdata	SEGMENT
$chain$0$?append@?$basic_string@DU?$char_traits@D@std@@V?$allocator@D@2@@std@@QEAAAEAV12@AEBV12@_K1@Z DD 020521H
	DD	067405H
	DD	imagerel $LN156@append
	DD	imagerel $LN156@append+75
	DD	imagerel $unwind$?append@?$basic_string@DU?$char_traits@D@std@@V?$allocator@D@2@@std@@QEAAAEAV12@AEBV12@_K1@Z
xdata	ENDS
;	COMDAT xdata
xdata	SEGMENT
$unwind$?append@?$basic_string@DU?$char_traits@D@std@@V?$allocator@D@2@@std@@QEAAAEAV12@AEBV12@_K1@Z DD 081501H
	DD	096415H
	DD	085415H
	DD	073415H
	DD	0e0113215H
xdata	ENDS
;	COMDAT xdata
xdata	SEGMENT
$unwind$?deallocate@?$_Wrap_alloc@V?$allocator@PEAVErrorInfo@Reader@Json@@@std@@@std@@QEAAXPEAPEAVErrorInfo@Reader@Json@@_K@Z DD 010401H
	DD	04204H
xdata	ENDS
;	COMDAT xdata
xdata	SEGMENT
$unwind$?allocate@?$_Wrap_alloc@V?$allocator@PEAVErrorInfo@Reader@Json@@@std@@@std@@QEAAPEAPEAVErrorInfo@Reader@Json@@_K@Z DD 010401H
	DD	04204H
xdata	ENDS
;	COMDAT xdata
xdata	SEGMENT
$unwind$?_Free_proxy@?$_Deque_alloc@U?$_Deque_base_types@VErrorInfo@Reader@Json@@V?$allocator@VErrorInfo@Reader@Json@@@std@@@std@@@std@@QEAAXXZ DD 020601H
	DD	030023206H
xdata	ENDS
;	COMDAT xdata
xdata	SEGMENT
$unwind$?_Alloc_proxy@?$_Deque_alloc@U?$_Deque_base_types@VErrorInfo@Reader@Json@@V?$allocator@VErrorInfo@Reader@Json@@@std@@@std@@@std@@QEAAXXZ DD 020601H
	DD	030023206H
xdata	ENDS
;	COMDAT xdata
xdata	SEGMENT
$unwind$?deallocate@?$_Wrap_alloc@V?$allocator@PEAPEAVValue@Json@@@std@@@std@@QEAAXPEAPEAPEAVValue@Json@@_K@Z DD 010401H
	DD	04204H
xdata	ENDS
;	COMDAT xdata
xdata	SEGMENT
$unwind$?_Free_proxy@?$_Deque_alloc@U?$_Deque_base_types@PEAVValue@Json@@V?$allocator@PEAVValue@Json@@@std@@@std@@@std@@QEAAXXZ DD 020601H
	DD	030023206H
xdata	ENDS
;	COMDAT xdata
xdata	SEGMENT
$unwind$??0?$_Deque_alloc@U?$_Deque_base_types@PEAVValue@Json@@V?$allocator@PEAVValue@Json@@@std@@@std@@@std@@QEAA@XZ DD 020601H
	DD	030023206H
xdata	ENDS
;	COMDAT xdata
xdata	SEGMENT
$chain$10$?_Growmap@?$deque@PEAVValue@Json@@V?$allocator@PEAVValue@Json@@@std@@@std@@IEAAX_K@Z DD 060021H
	DD	04f400H
	DD	05e400H
	DD	06d400H
	DD	imagerel $LN310@Growmap
	DD	imagerel $LN310@Growmap+74
	DD	imagerel $unwind$?_Growmap@?$deque@PEAVValue@Json@@V?$allocator@PEAVValue@Json@@@std@@@std@@IEAAX_K@Z
xdata	ENDS
;	COMDAT xdata
xdata	SEGMENT
$chain$9$?_Growmap@?$deque@PEAVValue@Json@@V?$allocator@PEAVValue@Json@@@std@@@std@@IEAAX_K@Z DD 021H
	DD	imagerel $LN310@Growmap
	DD	imagerel $LN310@Growmap+74
	DD	imagerel $unwind$?_Growmap@?$deque@PEAVValue@Json@@V?$allocator@PEAVValue@Json@@@std@@@std@@IEAAX_K@Z
xdata	ENDS
;	COMDAT xdata
xdata	SEGMENT
$chain$8$?_Growmap@?$deque@PEAVValue@Json@@V?$allocator@PEAVValue@Json@@@std@@@std@@IEAAX_K@Z DD 060021H
	DD	04f400H
	DD	05e400H
	DD	06d400H
	DD	imagerel $LN310@Growmap
	DD	imagerel $LN310@Growmap+74
	DD	imagerel $unwind$?_Growmap@?$deque@PEAVValue@Json@@V?$allocator@PEAVValue@Json@@@std@@@std@@IEAAX_K@Z
xdata	ENDS
;	COMDAT xdata
xdata	SEGMENT
$chain$6$?_Growmap@?$deque@PEAVValue@Json@@V?$allocator@PEAVValue@Json@@@std@@@std@@IEAAX_K@Z DD 021H
	DD	imagerel $LN310@Growmap+74
	DD	imagerel $LN310@Growmap+189
	DD	imagerel $chain$2$?_Growmap@?$deque@PEAVValue@Json@@V?$allocator@PEAVValue@Json@@@std@@@std@@IEAAX_K@Z
xdata	ENDS
;	COMDAT xdata
xdata	SEGMENT
$chain$5$?_Growmap@?$deque@PEAVValue@Json@@V?$allocator@PEAVValue@Json@@@std@@@std@@IEAAX_K@Z DD 061721H
	DD	0cc417H
	DD	0b740eH
	DD	0a3405H
	DD	imagerel $LN310@Growmap+74
	DD	imagerel $LN310@Growmap+189
	DD	imagerel $chain$2$?_Growmap@?$deque@PEAVValue@Json@@V?$allocator@PEAVValue@Json@@@std@@@std@@IEAAX_K@Z
xdata	ENDS
;	COMDAT xdata
xdata	SEGMENT
$chain$2$?_Growmap@?$deque@PEAVValue@Json@@V?$allocator@PEAVValue@Json@@@std@@@std@@IEAAX_K@Z DD 061921H
	DD	04f419H
	DD	05e414H
	DD	06d405H
	DD	imagerel $LN310@Growmap
	DD	imagerel $LN310@Growmap+74
	DD	imagerel $unwind$?_Growmap@?$deque@PEAVValue@Json@@V?$allocator@PEAVValue@Json@@@std@@@std@@IEAAX_K@Z
xdata	ENDS
;	COMDAT xdata
xdata	SEGMENT
$unwind$?_Growmap@?$deque@PEAVValue@Json@@V?$allocator@PEAVValue@Json@@@std@@@std@@IEAAX_K@Z DD 030701H
	DD	060036207H
	DD	05002H
xdata	ENDS
;	COMDAT xdata
xdata	SEGMENT
$unwind$?_Xlen@?$deque@VErrorInfo@Reader@Json@@V?$allocator@VErrorInfo@Reader@Json@@@std@@@std@@IEBAXXZ DD 010401H
	DD	04204H
xdata	ENDS
;	COMDAT xdata
xdata	SEGMENT
$unwind$?allocate@?$allocator@PEAVErrorInfo@Reader@Json@@@std@@QEAAPEAPEAVErrorInfo@Reader@Json@@_K@Z DD 010401H
	DD	04204H
xdata	ENDS
;	COMDAT xdata
xdata	SEGMENT
$unwind$?deallocate@?$allocator@PEAVErrorInfo@Reader@Json@@@std@@QEAAXPEAPEAVErrorInfo@Reader@Json@@_K@Z DD 010401H
	DD	04204H
xdata	ENDS
;	COMDAT xdata
xdata	SEGMENT
$unwind$?allocate@?$_Wrap_alloc@V?$allocator@PEAPEAVValue@Json@@@std@@@std@@QEAAPEAPEAPEAVValue@Json@@_K@Z DD 010401H
	DD	04204H
xdata	ENDS
;	COMDAT xdata
xdata	SEGMENT
$unwind$?deallocate@?$allocator@PEAPEAVValue@Json@@@std@@QEAAXPEAPEAPEAVValue@Json@@_K@Z DD 010401H
	DD	04204H
xdata	ENDS
;	COMDAT xdata
xdata	SEGMENT
$unwind$?_Alloc_proxy@?$_Deque_alloc@U?$_Deque_base_types@PEAVValue@Json@@V?$allocator@PEAVValue@Json@@@std@@@std@@@std@@QEAAXXZ DD 020601H
	DD	030023206H
xdata	ENDS
;	COMDAT xdata
xdata	SEGMENT
$unwind$?_Xlen@?$deque@PEAVValue@Json@@V?$allocator@PEAVValue@Json@@@std@@@std@@IEBAXXZ DD 010401H
	DD	04204H
xdata	ENDS
;	COMDAT xdata
xdata	SEGMENT
$unwind$?allocate@?$allocator@PEAPEAVValue@Json@@@std@@QEAAPEAPEAPEAVValue@Json@@_K@Z DD 010401H
	DD	04204H
xdata	ENDS
;	COMDAT xdata
xdata	SEGMENT
$unwind$?dtor$2@?0???$use_facet@V?$ctype@D@std@@@std@@YAAEBV?$ctype@D@0@AEBVlocale@0@@Z@4HA DD 020601H
	DD	050023206H
xdata	ENDS
;	COMDAT xdata
xdata	SEGMENT
$ip2state$??$use_facet@V?$ctype@D@std@@@std@@YAAEBV?$ctype@D@0@AEBVlocale@0@@Z DD imagerel ??$use_facet@V?$ctype@D@std@@@std@@YAAEBV?$ctype@D@0@AEBVlocale@0@@Z+35
	DD	0ffffffffH
	DD	imagerel ??$use_facet@V?$ctype@D@std@@@std@@YAAEBV?$ctype@D@0@AEBVlocale@0@@Z+70
	DD	00H
	DD	imagerel ??$use_facet@V?$ctype@D@std@@@std@@YAAEBV?$ctype@D@0@AEBVlocale@0@@Z+226
	DD	01H
	DD	imagerel ??$use_facet@V?$ctype@D@std@@@std@@YAAEBV?$ctype@D@0@AEBVlocale@0@@Z+309
	DD	00H
	DD	imagerel ??$use_facet@V?$ctype@D@std@@@std@@YAAEBV?$ctype@D@0@AEBVlocale@0@@Z+344
	DD	0ffffffffH
xdata	ENDS
;	COMDAT xdata
xdata	SEGMENT
$stateUnwindMap$??$use_facet@V?$ctype@D@std@@@std@@YAAEBV?$ctype@D@0@AEBVlocale@0@@Z DD 0ffffffffH
	DD	imagerel ?dtor$0@?0???$use_facet@V?$ctype@D@std@@@std@@YAAEBV?$ctype@D@0@AEBVlocale@0@@Z@4HA
	DD	00H
	DD	imagerel ?dtor$2@?0???$use_facet@V?$ctype@D@std@@@std@@YAAEBV?$ctype@D@0@AEBVlocale@0@@Z@4HA
xdata	ENDS
;	COMDAT CONST
CONST	SEGMENT
$cppxdata$??$use_facet@V?$ctype@D@std@@@std@@YAAEBV?$ctype@D@0@AEBVlocale@0@@Z DQ 00000000219930522r ; 4.45598e-314
	DD	imagerel $stateUnwindMap$??$use_facet@V?$ctype@D@std@@@std@@YAAEBV?$ctype@D@0@AEBVlocale@0@@Z
	DQ	00000000000000000r		; 0
	DD	05H
	DD	imagerel $ip2state$??$use_facet@V?$ctype@D@std@@@std@@YAAEBV?$ctype@D@0@AEBVlocale@0@@Z
	DQ	00000000000000020r		; 1.58101e-322
	DD	01H
CONST	ENDS
;	COMDAT xdata
xdata	SEGMENT
$unwind$??$use_facet@V?$ctype@D@std@@@std@@YAAEBV?$ctype@D@0@AEBVlocale@0@@Z DD 071a11H
	DD	01c341aH
	DD	016010dH
	DD	060057006H
	DD	05004H
	DD	imagerel __CxxFrameHandler3
	DD	imagerel $cppxdata$??$use_facet@V?$ctype@D@std@@@std@@YAAEBV?$ctype@D@0@AEBVlocale@0@@Z
xdata	ENDS
;	COMDAT xdata
xdata	SEGMENT
$unwind$??$_Immortalize@V_Iostream_error_category@std@@@std@@YAAEAV_Iostream_error_category@0@XZ DD 010401H
	DD	04204H
xdata	ENDS
;	COMDAT xdata
xdata	SEGMENT
$unwind$??$?HDU?$char_traits@D@std@@V?$allocator@D@1@@std@@YA?AV?$basic_string@DU?$char_traits@D@std@@V?$allocator@D@2@@0@PEBD$$QEAV10@@Z DD 020601H
	DD	030023206H
xdata	ENDS
;	COMDAT xdata
xdata	SEGMENT
$unwind$??$?HDU?$char_traits@D@std@@V?$allocator@D@1@@std@@YA?AV?$basic_string@DU?$char_traits@D@std@@V?$allocator@D@2@@0@$$QEAV10@PEBD@Z DD 020601H
	DD	030023206H
xdata	ENDS
;	COMDAT xdata
xdata	SEGMENT
$unwind$?dtor$0@?0???$construct@VErrorInfo@Reader@Json@@AEBV123@@?$_Wrap_alloc@V?$allocator@VErrorInfo@Reader@Json@@@std@@@std@@QEAAXPEAVErrorInfo@Reader@Json@@AEBV234@@Z@4HA DD 020601H
	DD	050023206H
xdata	ENDS
;	COMDAT xdata
xdata	SEGMENT
$ip2state$??$construct@VErrorInfo@Reader@Json@@AEBV123@@?$_Wrap_alloc@V?$allocator@VErrorInfo@Reader@Json@@@std@@@std@@QEAAXPEAVErrorInfo@Reader@Json@@AEBV234@@Z DD imagerel ??$construct@VErrorInfo@Reader@Json@@AEBV123@@?$_Wrap_alloc@V?$allocator@VErrorInfo@Reader@Json@@@std@@@std@@QEAAXPEAVErrorInfo@Reader@Json@@AEBV234@@Z+100
	DD	00H
xdata	ENDS
;	COMDAT xdata
xdata	SEGMENT
$stateUnwindMap$??$construct@VErrorInfo@Reader@Json@@AEBV123@@?$_Wrap_alloc@V?$allocator@VErrorInfo@Reader@Json@@@std@@@std@@QEAAXPEAVErrorInfo@Reader@Json@@AEBV234@@Z DD 0ffffffffH
	DD	imagerel ?dtor$0@?0???$construct@VErrorInfo@Reader@Json@@AEBV123@@?$_Wrap_alloc@V?$allocator@VErrorInfo@Reader@Json@@@std@@@std@@QEAAXPEAVErrorInfo@Reader@Json@@AEBV234@@Z@4HA
xdata	ENDS
;	COMDAT CONST
CONST	SEGMENT
$cppxdata$??$construct@VErrorInfo@Reader@Json@@AEBV123@@?$_Wrap_alloc@V?$allocator@VErrorInfo@Reader@Json@@@std@@@std@@QEAAXPEAVErrorInfo@Reader@Json@@AEBV234@@Z DQ 00000000119930522r ; 2.33398e-314
	DD	imagerel $stateUnwindMap$??$construct@VErrorInfo@Reader@Json@@AEBV123@@?$_Wrap_alloc@V?$allocator@VErrorInfo@Reader@Json@@@std@@@std@@QEAAXPEAVErrorInfo@Reader@Json@@AEBV234@@Z
	DQ	00000000000000000r		; 0
	DD	01H
	DD	imagerel $ip2state$??$construct@VErrorInfo@Reader@Json@@AEBV123@@?$_Wrap_alloc@V?$allocator@VErrorInfo@Reader@Json@@@std@@@std@@QEAAXPEAVErrorInfo@Reader@Json@@AEBV234@@Z
	DQ	00000000000000020r		; 1.58101e-322
	DD	01H
CONST	ENDS
;	COMDAT xdata
xdata	SEGMENT
$unwind$??$construct@VErrorInfo@Reader@Json@@AEBV123@@?$_Wrap_alloc@V?$allocator@VErrorInfo@Reader@Json@@@std@@@std@@QEAAXPEAVErrorInfo@Reader@Json@@AEBV234@@Z DD 041d11H
	DD	0a341dH
	DD	0700b520fH
	DD	imagerel __CxxFrameHandler3
	DD	imagerel $cppxdata$??$construct@VErrorInfo@Reader@Json@@AEBV123@@?$_Wrap_alloc@V?$allocator@VErrorInfo@Reader@Json@@@std@@@std@@QEAAXPEAVErrorInfo@Reader@Json@@AEBV234@@Z
xdata	ENDS
;	COMDAT xdata
xdata	SEGMENT
$unwind$??$emplace_back@$$V@?$deque@VErrorInfo@Reader@Json@@V?$allocator@VErrorInfo@Reader@Json@@@std@@@std@@QEAAXXZ DD 040a01H
	DD	06340aH
	DD	07006320aH
xdata	ENDS
;	COMDAT xdata
xdata	SEGMENT
$unwind$??$_Uninitialized_copy@PEAPEAVErrorInfo@Reader@Json@@PEAPEAV123@V?$allocator@PEAVErrorInfo@Reader@Json@@@std@@@std@@YAPEAPEAVErrorInfo@Reader@Json@@PEAPEAV123@00AEAU?$_Wrap_alloc@V?$allocator@PEAVErrorInfo@Reader@Json@@@std@@@0@@Z DD 040a01H
	DD	06340aH
	DD	07006320aH
xdata	ENDS
;	COMDAT xdata
xdata	SEGMENT
$unwind$??$_Uninitialized_copy@PEAPEAPEAVValue@Json@@PEAPEAPEAV12@V?$allocator@PEAPEAVValue@Json@@@std@@@std@@YAPEAPEAPEAVValue@Json@@PEAPEAPEAV12@00AEAU?$_Wrap_alloc@V?$allocator@PEAPEAVValue@Json@@@std@@@0@@Z DD 040a01H
	DD	06340aH
	DD	07006320aH
xdata	ENDS
;	COMDAT xdata
xdata	SEGMENT
$unwind$??0bad_cast@std@@QEAA@AEBV01@@Z DD 020601H
	DD	030023206H
xdata	ENDS
;	COMDAT xdata
xdata	SEGMENT
$chain$3$?insert@?$basic_string@DU?$char_traits@D@std@@V?$allocator@D@2@@std@@QEAAAEAV12@_KPEBD0@Z DD 021H
	DD	imagerel $LN210@insert
	DD	imagerel $LN210@insert+141
	DD	imagerel $unwind$?insert@?$basic_string@DU?$char_traits@D@std@@V?$allocator@D@2@@std@@QEAAAEAV12@_KPEBD0@Z
xdata	ENDS
;	COMDAT xdata
xdata	SEGMENT
$chain$2$?insert@?$basic_string@DU?$char_traits@D@std@@V?$allocator@D@2@@std@@QEAAAEAV12@_KPEBD0@Z DD 020021H
	DD	087400H
	DD	imagerel $LN210@insert
	DD	imagerel $LN210@insert+141
	DD	imagerel $unwind$?insert@?$basic_string@DU?$char_traits@D@std@@V?$allocator@D@2@@std@@QEAAAEAV12@_KPEBD0@Z
xdata	ENDS
;	COMDAT xdata
xdata	SEGMENT
$chain$0$?insert@?$basic_string@DU?$char_traits@D@std@@V?$allocator@D@2@@std@@QEAAAEAV12@_KPEBD0@Z DD 020521H
	DD	087405H
	DD	imagerel $LN210@insert
	DD	imagerel $LN210@insert+141
	DD	imagerel $unwind$?insert@?$basic_string@DU?$char_traits@D@std@@V?$allocator@D@2@@std@@QEAAAEAV12@_KPEBD0@Z
xdata	ENDS
;	COMDAT xdata
xdata	SEGMENT
$unwind$?insert@?$basic_string@DU?$char_traits@D@std@@V?$allocator@D@2@@std@@QEAAAEAV12@_KPEBD0@Z DD 060f01H
	DD	0a540fH
	DD	09340fH
	DD	0600b520fH
xdata	ENDS
;	COMDAT xdata
xdata	SEGMENT
$chain$5$?insert@?$basic_string@DU?$char_traits@D@std@@V?$allocator@D@2@@std@@QEAAAEAV12@_KAEBV12@00@Z DD 020021H
	DD	077400H
	DD	imagerel $LN226@insert
	DD	imagerel $LN226@insert+45
	DD	imagerel $unwind$?insert@?$basic_string@DU?$char_traits@D@std@@V?$allocator@D@2@@std@@QEAAAEAV12@_KAEBV12@00@Z
xdata	ENDS
;	COMDAT xdata
xdata	SEGMENT
$chain$4$?insert@?$basic_string@DU?$char_traits@D@std@@V?$allocator@D@2@@std@@QEAAAEAV12@_KAEBV12@00@Z DD 021H
	DD	imagerel $LN226@insert
	DD	imagerel $LN226@insert+45
	DD	imagerel $unwind$?insert@?$basic_string@DU?$char_traits@D@std@@V?$allocator@D@2@@std@@QEAAAEAV12@_KAEBV12@00@Z
xdata	ENDS
;	COMDAT xdata
xdata	SEGMENT
$chain$3$?insert@?$basic_string@DU?$char_traits@D@std@@V?$allocator@D@2@@std@@QEAAAEAV12@_KAEBV12@00@Z DD 020021H
	DD	066400H
	DD	imagerel $LN226@insert+45
	DD	imagerel $LN226@insert+77
	DD	imagerel $chain$0$?insert@?$basic_string@DU?$char_traits@D@std@@V?$allocator@D@2@@std@@QEAAAEAV12@_KAEBV12@00@Z
xdata	ENDS
;	COMDAT xdata
xdata	SEGMENT
$chain$1$?insert@?$basic_string@DU?$char_traits@D@std@@V?$allocator@D@2@@std@@QEAAAEAV12@_KAEBV12@00@Z DD 020521H
	DD	066405H
	DD	imagerel $LN226@insert+45
	DD	imagerel $LN226@insert+77
	DD	imagerel $chain$0$?insert@?$basic_string@DU?$char_traits@D@std@@V?$allocator@D@2@@std@@QEAAAEAV12@_KAEBV12@00@Z
xdata	ENDS
;	COMDAT xdata
xdata	SEGMENT
$chain$0$?insert@?$basic_string@DU?$char_traits@D@std@@V?$allocator@D@2@@std@@QEAAAEAV12@_KAEBV12@00@Z DD 020521H
	DD	077405H
	DD	imagerel $LN226@insert
	DD	imagerel $LN226@insert+45
	DD	imagerel $unwind$?insert@?$basic_string@DU?$char_traits@D@std@@V?$allocator@D@2@@std@@QEAAAEAV12@_KAEBV12@00@Z
xdata	ENDS
;	COMDAT xdata
xdata	SEGMENT
$unwind$?insert@?$basic_string@DU?$char_traits@D@std@@V?$allocator@D@2@@std@@QEAAAEAV12@_KAEBV12@00@Z DD 061001H
	DD	09e410H
	DD	083410H
	DD	0f00c3210H
xdata	ENDS
;	COMDAT xdata
xdata	SEGMENT
$unwind$?catch$4@?0???$getline@DU?$char_traits@D@std@@V?$allocator@D@2@@std@@YAAEAV?$basic_istream@DU?$char_traits@D@std@@@0@$$QEAV10@AEAV?$basic_string@DU?$char_traits@D@std@@V?$allocator@D@2@@0@D@Z@4HA DD 020a19H
	DD	05006320aH
	DD	imagerel __CxxFrameHandler3
	DD	imagerel $cppxdata$??$getline@DU?$char_traits@D@std@@V?$allocator@D@2@@std@@YAAEAV?$basic_istream@DU?$char_traits@D@std@@@0@$$QEAV10@AEAV?$basic_string@DU?$char_traits@D@std@@V?$allocator@D@2@@0@D@Z
xdata	ENDS
;	COMDAT xdata
xdata	SEGMENT
$ip2state$??$getline@DU?$char_traits@D@std@@V?$allocator@D@2@@std@@YAAEAV?$basic_istream@DU?$char_traits@D@std@@@0@$$QEAV10@AEAV?$basic_string@DU?$char_traits@D@std@@V?$allocator@D@2@@0@D@Z DD imagerel ??$getline@DU?$char_traits@D@std@@V?$allocator@D@2@@std@@YAAEAV?$basic_istream@DU?$char_traits@D@std@@@0@$$QEAV10@AEAV?$basic_string@DU?$char_traits@D@std@@V?$allocator@D@2@@0@D@Z+87
	DD	0ffffffffH
	DD	imagerel ??$getline@DU?$char_traits@D@std@@V?$allocator@D@2@@std@@YAAEAV?$basic_istream@DU?$char_traits@D@std@@@0@$$QEAV10@AEAV?$basic_string@DU?$char_traits@D@std@@V?$allocator@D@2@@0@D@Z+96
	DD	00H
	DD	imagerel ??$getline@DU?$char_traits@D@std@@V?$allocator@D@2@@std@@YAAEAV?$basic_istream@DU?$char_traits@D@std@@@0@$$QEAV10@AEAV?$basic_string@DU?$char_traits@D@std@@V?$allocator@D@2@@0@D@Z+182
	DD	02H
	DD	imagerel ??$getline@DU?$char_traits@D@std@@V?$allocator@D@2@@std@@YAAEAV?$basic_istream@DU?$char_traits@D@std@@@0@$$QEAV10@AEAV?$basic_string@DU?$char_traits@D@std@@V?$allocator@D@2@@0@D@Z+293
	DD	01H
	DD	imagerel ??$getline@DU?$char_traits@D@std@@V?$allocator@D@2@@std@@YAAEAV?$basic_istream@DU?$char_traits@D@std@@@0@$$QEAV10@AEAV?$basic_string@DU?$char_traits@D@std@@V?$allocator@D@2@@0@D@Z+340
	DD	02H
	DD	imagerel ??$getline@DU?$char_traits@D@std@@V?$allocator@D@2@@std@@YAAEAV?$basic_istream@DU?$char_traits@D@std@@@0@$$QEAV10@AEAV?$basic_string@DU?$char_traits@D@std@@V?$allocator@D@2@@0@D@Z+592
	DD	01H
	DD	imagerel ??$getline@DU?$char_traits@D@std@@V?$allocator@D@2@@std@@YAAEAV?$basic_istream@DU?$char_traits@D@std@@@0@$$QEAV10@AEAV?$basic_string@DU?$char_traits@D@std@@V?$allocator@D@2@@0@D@Z+660
	DD	04H
	DD	imagerel ??$getline@DU?$char_traits@D@std@@V?$allocator@D@2@@std@@YAAEAV?$basic_istream@DU?$char_traits@D@std@@@0@$$QEAV10@AEAV?$basic_string@DU?$char_traits@D@std@@V?$allocator@D@2@@0@D@Z+689
	DD	0ffffffffH
	DD	imagerel ??$getline@DU?$char_traits@D@std@@V?$allocator@D@2@@std@@YAAEAV?$basic_istream@DU?$char_traits@D@std@@@0@$$QEAV10@AEAV?$basic_string@DU?$char_traits@D@std@@V?$allocator@D@2@@0@D@Z+719
	DD	02H
	DD	imagerel ??$getline@DU?$char_traits@D@std@@V?$allocator@D@2@@std@@YAAEAV?$basic_istream@DU?$char_traits@D@std@@@0@$$QEAV10@AEAV?$basic_string@DU?$char_traits@D@std@@V?$allocator@D@2@@0@D@Z+731
	DD	0ffffffffH
	DD	imagerel ?catch$4@?0???$getline@DU?$char_traits@D@std@@V?$allocator@D@2@@std@@YAAEAV?$basic_istream@DU?$char_traits@D@std@@@0@$$QEAV10@AEAV?$basic_string@DU?$char_traits@D@std@@V?$allocator@D@2@@0@D@Z@4HA+50
	DD	03H
xdata	ENDS
;	COMDAT xdata
xdata	SEGMENT
$handlerMap$0$??$getline@DU?$char_traits@D@std@@V?$allocator@D@2@@std@@YAAEAV?$basic_istream@DU?$char_traits@D@std@@@0@$$QEAV10@AEAV?$basic_string@DU?$char_traits@D@std@@V?$allocator@D@2@@0@D@Z DD 040H
	DD	00H
	DD	00H
	DD	imagerel ?catch$4@?0???$getline@DU?$char_traits@D@std@@V?$allocator@D@2@@std@@YAAEAV?$basic_istream@DU?$char_traits@D@std@@@0@$$QEAV10@AEAV?$basic_string@DU?$char_traits@D@std@@V?$allocator@D@2@@0@D@Z@4HA
	DD	038H
xdata	ENDS
;	COMDAT xdata
xdata	SEGMENT
$tryMap$??$getline@DU?$char_traits@D@std@@V?$allocator@D@2@@std@@YAAEAV?$basic_istream@DU?$char_traits@D@std@@@0@$$QEAV10@AEAV?$basic_string@DU?$char_traits@D@std@@V?$allocator@D@2@@0@D@Z DD 02H
	DD	02H
	DD	03H
	DD	01H
	DD	imagerel $handlerMap$0$??$getline@DU?$char_traits@D@std@@V?$allocator@D@2@@std@@YAAEAV?$basic_istream@DU?$char_traits@D@std@@@0@$$QEAV10@AEAV?$basic_string@DU?$char_traits@D@std@@V?$allocator@D@2@@0@D@Z
xdata	ENDS
;	COMDAT xdata
xdata	SEGMENT
$stateUnwindMap$??$getline@DU?$char_traits@D@std@@V?$allocator@D@2@@std@@YAAEAV?$basic_istream@DU?$char_traits@D@std@@@0@$$QEAV10@AEAV?$basic_string@DU?$char_traits@D@std@@V?$allocator@D@2@@0@D@Z DD 0ffffffffH
	DD	imagerel ?dtor$1@?0???$getline@DU?$char_traits@D@std@@V?$allocator@D@2@@std@@YAAEAV?$basic_istream@DU?$char_traits@D@std@@@0@$$QEAV10@AEAV?$basic_string@DU?$char_traits@D@std@@V?$allocator@D@2@@0@D@Z@4HA
	DD	0ffffffffH
	DD	imagerel ?dtor$0@?0???$getline@DU?$char_traits@D@std@@V?$allocator@D@2@@std@@YAAEAV?$basic_istream@DU?$char_traits@D@std@@@0@$$QEAV10@AEAV?$basic_string@DU?$char_traits@D@std@@V?$allocator@D@2@@0@D@Z@4HA
	DD	01H
	DD	00H
	DD	01H
	DD	00H
	DD	0ffffffffH
	DD	imagerel __std_terminate
xdata	ENDS
;	COMDAT CONST
CONST	SEGMENT
$cppxdata$??$getline@DU?$char_traits@D@std@@V?$allocator@D@2@@std@@YAAEAV?$basic_istream@DU?$char_traits@D@std@@@0@$$QEAV10@AEAV?$basic_string@DU?$char_traits@D@std@@V?$allocator@D@2@@0@D@Z DQ 00000000519930522r ; 1.0822e-313
	DD	imagerel $stateUnwindMap$??$getline@DU?$char_traits@D@std@@V?$allocator@D@2@@std@@YAAEAV?$basic_istream@DU?$char_traits@D@std@@@0@$$QEAV10@AEAV?$basic_string@DU?$char_traits@D@std@@V?$allocator@D@2@@0@D@Z
	DD	01H
	DD	imagerel $tryMap$??$getline@DU?$char_traits@D@std@@V?$allocator@D@2@@std@@YAAEAV?$basic_istream@DU?$char_traits@D@std@@@0@$$QEAV10@AEAV?$basic_string@DU?$char_traits@D@std@@V?$allocator@D@2@@0@D@Z
	DD	0bH
	DD	imagerel $ip2state$??$getline@DU?$char_traits@D@std@@V?$allocator@D@2@@std@@YAAEAV?$basic_istream@DU?$char_traits@D@std@@@0@$$QEAV10@AEAV?$basic_string@DU?$char_traits@D@std@@V?$allocator@D@2@@0@D@Z
	DQ	00000000000000028r		; 1.97626e-322
	DD	01H
CONST	ENDS
;	COMDAT xdata
xdata	SEGMENT
$unwind$??$getline@DU?$char_traits@D@std@@V?$allocator@D@2@@std@@YAAEAV?$basic_istream@DU?$char_traits@D@std@@@0@$$QEAV10@AEAV?$basic_string@DU?$char_traits@D@std@@V?$allocator@D@2@@0@D@Z DD 0a2419H
	DD	0106424H
	DD	0f3420H
	DD	0f0107214H
	DD	0d00ce00eH
	DD	07008c00aH
	DD	imagerel __CxxFrameHandler3
	DD	imagerel $cppxdata$??$getline@DU?$char_traits@D@std@@V?$allocator@D@2@@std@@YAAEAV?$basic_istream@DU?$char_traits@D@std@@@0@$$QEAV10@AEAV?$basic_string@DU?$char_traits@D@std@@V?$allocator@D@2@@0@D@Z
xdata	ENDS
;	COMDAT xdata
xdata	SEGMENT
$unwind$?dtor$0@?0???$construct@VErrorInfo@Reader@Json@@AEBV123@@?$allocator_traits@V?$allocator@VErrorInfo@Reader@Json@@@std@@@std@@SAXAEAV?$allocator@VErrorInfo@Reader@Json@@@1@PEAVErrorInfo@Reader@Json@@AEBV345@@Z@4HA DD 020601H
	DD	050023206H
xdata	ENDS
;	COMDAT xdata
xdata	SEGMENT
$ip2state$??$construct@VErrorInfo@Reader@Json@@AEBV123@@?$allocator_traits@V?$allocator@VErrorInfo@Reader@Json@@@std@@@std@@SAXAEAV?$allocator@VErrorInfo@Reader@Json@@@1@PEAVErrorInfo@Reader@Json@@AEBV345@@Z DD imagerel ??$construct@VErrorInfo@Reader@Json@@AEBV123@@?$allocator_traits@V?$allocator@VErrorInfo@Reader@Json@@@std@@@std@@SAXAEAV?$allocator@VErrorInfo@Reader@Json@@@1@PEAVErrorInfo@Reader@Json@@AEBV345@@Z+100
	DD	00H
xdata	ENDS
;	COMDAT xdata
xdata	SEGMENT
$stateUnwindMap$??$construct@VErrorInfo@Reader@Json@@AEBV123@@?$allocator_traits@V?$allocator@VErrorInfo@Reader@Json@@@std@@@std@@SAXAEAV?$allocator@VErrorInfo@Reader@Json@@@1@PEAVErrorInfo@Reader@Json@@AEBV345@@Z DD 0ffffffffH
	DD	imagerel ?dtor$0@?0???$construct@VErrorInfo@Reader@Json@@AEBV123@@?$allocator_traits@V?$allocator@VErrorInfo@Reader@Json@@@std@@@std@@SAXAEAV?$allocator@VErrorInfo@Reader@Json@@@1@PEAVErrorInfo@Reader@Json@@AEBV345@@Z@4HA
xdata	ENDS
;	COMDAT CONST
CONST	SEGMENT
$cppxdata$??$construct@VErrorInfo@Reader@Json@@AEBV123@@?$allocator_traits@V?$allocator@VErrorInfo@Reader@Json@@@std@@@std@@SAXAEAV?$allocator@VErrorInfo@Reader@Json@@@1@PEAVErrorInfo@Reader@Json@@AEBV345@@Z DQ 00000000119930522r ; 2.33398e-314
